(dp0
S'TMS_cit_c'
p1
(dp2
S'maximum_status'
p3
S'failed'
p4
sS'maximum'
p5
NssS'TMS_3ocmrs7eACP_c'
p6
(dp7
S'maximum_status'
p8
g4
sg5
NssS'TMS_g3pi_c'
p9
(dp10
S'maximum_status'
p11
S'optimal'
p12
sg5
F2.5362023996340572
ssS'TMS_cit_p'
p13
(dp14
S'maximum_status'
p15
g12
sg5
F2.5362023996340572
ssS'TMS_g3pi_p'
p16
(dp17
S'maximum_status'
p18
g12
sg5
F2.536202399626656
ssS'TMS_glyc_c'
p19
(dp20
S'maximum_status'
p21
S'infeasible'
p22
sg5
NssS'TMS_thmmp_c'
p23
(dp24
S'maximum_status'
p25
g12
sg5
F2.5362023996340572
ssS'TMS_um4p_c'
p26
(dp27
S'maximum_status'
p28
g12
sg5
F2.5362023996340572
ssS'TMS_e4p_c'
p29
(dp30
S'maximum_status'
p31
g4
sg5
NssS'TMS_glyc_p'
p32
(dp33
S'maximum_status'
p34
g4
sg5
NssS'TMS_murein3px4p_p'
p35
(dp36
S'maximum_status'
p37
g12
sg5
F2.5362023996340572
ssS'TMS_fc1p_c'
p38
(dp39
S'maximum_status'
p40
g12
sg5
F2.536202399634069
ssS'TMS_hco3_c'
p41
(dp42
S'maximum_status'
p43
g4
sg5
NssS'TMS_udcdp20Oag_p'
p44
(dp45
S'maximum_status'
p46
g12
sg5
F2.5362023996340572
ssS'TMS_1agpg180_p'
p47
(dp48
S'maximum_status'
p49
g12
sg5
F2.5362023996340572
ssS'TMS_asp__L_p'
p50
(dp51
S'maximum_status'
p52
g4
sg5
NssS'TMS_1odecg3p_p'
p53
(dp54
S'maximum_status'
p55
g12
sg5
F2.5362023996266725
ssS'TMS_cpe160_c'
p56
(dp57
S'maximum_status'
p58
g12
sg5
F2.5362023996266645
ssS'TMS_ps181_c'
p59
(dp60
S'maximum_status'
p61
g4
sg5
NssS'TMS_asp__L_c'
p62
(dp63
S'maximum_status'
p64
g22
sg5
NssS'TMS_orn_c'
p65
(dp66
S'maximum_status'
p67
g22
sg5
NssS'TMS_3ig3p_c'
p68
(dp69
S'maximum_status'
p70
g12
sg5
F2.5362023996340795
ssS'TMS_his__L_p'
p71
(dp72
S'maximum_status'
p73
g4
sg5
NssS'TMS_btn_c'
p74
(dp75
S'maximum_status'
p76
g12
sg5
F2.5362023996340572
ssS'TMS_pe2_ST_p'
p77
(dp78
S'maximum_status'
p79
g4
sg5
NssS'TMS_orn_p'
p80
(dp81
S'maximum_status'
p82
g4
sg5
NssS'TMS_his__L_c'
p83
(dp84
S'maximum_status'
p85
g22
sg5
NssS'TMS_fcl__L_c'
p86
(dp87
S'maximum_status'
p88
g12
sg5
F2.5362023996340572
ssS'TMS_ser__L_p'
p89
(dp90
S'maximum_status'
p91
g4
sg5
NssS'TMS_occoa_c'
p92
(dp93
S'maximum_status'
p94
g12
sg5
F2.536202399626662
ssS'TMS_2odecg3p_c'
p95
(dp96
S'maximum_status'
p97
g12
sg5
F2.536202398508307
ssS'TMS_cys__L_p'
p98
(dp99
S'maximum_status'
p100
g12
sg5
F2.5362023996340572
ssS'TMS_ser__L_c'
p101
(dp102
S'maximum_status'
p103
g22
sg5
NssS'TMS_cys__L_c'
p104
(dp105
S'maximum_status'
p106
g22
sg5
NssS'TMS_2odecg3p_p'
p107
(dp108
S'maximum_status'
p109
g12
sg5
F2.536202398508307
ssS'TMS_peamn_p'
p110
(dp111
S'maximum_status'
p112
g12
sg5
F2.5362023996340572
ssS'TMS_slcys_c'
p113
(dp114
S'maximum_status'
p115
g12
sg5
F2.536202399634061
ssS'TMS_agdpcbi_c'
p116
(dp117
S'maximum_status'
p118
g12
sg5
F2.5362023996340572
ssS'TMS_fldox_c'
p119
(dp120
S'maximum_status'
p121
g12
sg5
F2.5346597710469507
ssS'TMS_1odecg3p_c'
p122
(dp123
S'maximum_status'
p124
g4
sg5
NssS'TMS_cysi__L_p'
p125
(dp126
S'maximum_status'
p127
g12
sg5
F2.5362023996340572
ssS'TMS_1tdec7eg3p_p'
p128
(dp129
S'maximum_status'
p130
g12
sg5
F2.5362023996266503
ssS'TMS_cysi__L_c'
p131
(dp132
S'maximum_status'
p133
g12
sg5
F2.5362023996266645
ssS'TMS_xan_p'
p134
(dp135
S'maximum_status'
p136
g12
sg5
F2.5362023996236074
ssS'TMS_dhpmp_c'
p137
(dp138
S'maximum_status'
p139
g4
sg5
NssS'TMS_uLa4n_p'
p140
(dp141
S'maximum_status'
p142
g12
sg5
F2.5362023996340572
ssS'TMS_4mop_c'
p143
(dp144
S'maximum_status'
p145
g12
sg5
F2.536202399634054
ssS'TMS_5mthf_c'
p146
(dp147
S'maximum_status'
p148
g4
sg5
NssS'TMS_anhgm_c'
p149
(dp150
S'maximum_status'
p151
g12
sg5
F2.5362023996340572
ssS'TMS_uLa4n_c'
p152
(dp153
S'maximum_status'
p154
g12
sg5
F2.5362023996340572
ssS'TMS_quln_c'
p155
(dp156
S'maximum_status'
p157
g12
sg5
F2.5362023996340572
ssS'TMS_pydx5p_c'
p158
(dp159
S'maximum_status'
p160
g12
sg5
F2.5362023996340572
ssS'TMS_2dh3dgal_c'
p161
(dp162
S'maximum_status'
p163
g12
sg5
F2.5362023996340572
ssS'TMS_3haACP_c'
p164
(dp165
S'maximum_status'
p166
g4
sg5
NssS'TMS_but_p'
p167
(dp168
S'maximum_status'
p169
g12
sg5
F2.536202399626663
ssS'TMS_man6p_p'
p170
(dp171
S'maximum_status'
p172
g12
sg5
F2.5362023996340706
ssS'TMS_g3pc_p'
p173
(dp174
S'maximum_status'
p175
g12
sg5
F2.5362023996340572
ssS'TMS_man6p_c'
p176
(dp177
S'maximum_status'
p178
g4
sg5
NssS'TMS_g3pc_c'
p179
(dp180
S'maximum_status'
p181
g12
sg5
F2.5362023996340572
ssS'TMS_drib_p'
p182
(dp183
S'maximum_status'
p184
g12
sg5
F2.5362023996340572
ssS'TMS_pe140_c'
p185
(dp186
S'maximum_status'
p187
g4
sg5
NssS'TMS_pppg9_c'
p188
(dp189
S'maximum_status'
p190
g12
sg5
F2.5362023996340572
ssS'TMS_drib_c'
p191
(dp192
S'maximum_status'
p193
g12
sg5
F2.5362023996340572
ssS'TMS_protrna_c'
p194
(dp195
S'maximum_status'
p196
g12
sg5
F2.5362023996266645
ssS'TMS_pe140_p'
p197
(dp198
S'maximum_status'
p199
g4
sg5
NssS'TMS_manglyc_p'
p200
(dp201
S'maximum_status'
p202
g12
sg5
F2.5362023996340572
ssS'TMS_lyx__L_p'
p203
(dp204
S'maximum_status'
p205
g12
sg5
F2.5362023996340572
ssS'TMS_3hocoa_c'
p206
(dp207
S'maximum_status'
p208
g12
sg5
F2.536202399626662
ssS'TMS_lac__L_c'
p209
(dp210
S'maximum_status'
p211
g12
sg5
F2.5362023996340572
ssS'TMS_pser__L_p'
p212
(dp213
S'maximum_status'
p214
g12
sg5
F2.5362023996266703
ssS'TMS_xyl__D_c'
p215
(dp216
S'maximum_status'
p217
g12
sg5
F2.5362023996340572
ssS'TMS_lac__L_p'
p218
(dp219
S'maximum_status'
p220
g12
sg5
F2.5362023996340572
ssS'TMS_thrtrna_c'
p221
(dp222
S'maximum_status'
p223
g12
sg5
F2.5362023996266645
ssS'TMS_pser__L_c'
p224
(dp225
S'maximum_status'
p226
g12
sg5
F2.5362023996266654
ssS'TMS_cys__D_p'
p227
(dp228
S'maximum_status'
p229
g12
sg5
F2.5362023996340572
ssS'TMS_pg161_c'
p230
(dp231
S'maximum_status'
p232
g12
sg5
F2.5361941075370873
ssS'TMS_so3_c'
p233
(dp234
S'maximum_status'
p235
g4
sg5
NssS'TMS_fecrm__un_c'
p236
(dp237
S'maximum_status'
p238
g12
sg5
F2.5362023996340555
ssS'TMS_g3ps_c'
p239
(dp240
S'maximum_status'
p241
g12
sg5
F2.5362023996340572
ssS'TMS_maltttr_c'
p242
(dp243
S'maximum_status'
p244
g12
sg5
F2.5362023996266654
ssS'TMS_pg161_p'
p245
(dp246
S'maximum_status'
p247
g4
sg5
NssS'TMS_codscl8x_c'
p248
(dp249
S'maximum_status'
p250
g12
sg5
F2.5362023996340572
ssS'TMS_so3_p'
p251
(dp252
S'maximum_status'
p253
g12
sg5
F2.5362023996340572
ssS'TMS_3hpppn_p'
p254
(dp255
S'maximum_status'
p256
g12
sg5
F2.5362023996340572
ssS'TMS_lystrna_c'
p257
(dp258
S'maximum_status'
p259
g12
sg5
F2.5362023996266645
ssS'TMS_met__L_c'
p260
(dp261
S'maximum_status'
p262
g22
sg5
NssS'TMS_t3c7mrseACP_c'
p263
(dp264
S'maximum_status'
p265
g4
sg5
NssS'TMS_met__L_p'
p266
(dp267
S'maximum_status'
p268
g4
sg5
NssS'TMS_udpg_p'
p269
(dp270
S'maximum_status'
p271
g12
sg5
F2.5362023996340572
ssS'TMS_glx_c'
p272
(dp273
S'maximum_status'
p274
g12
sg5
F2.5362023996340572
ssS'TMS_feoxam_p'
p275
(dp276
S'maximum_status'
p277
g12
sg5
F2.536202399626663
ssS'TMS_feoxam_c'
p278
(dp279
S'maximum_status'
p280
g12
sg5
F2.5362023996340572
ssS'TMS_fecrm__un_p'
p281
(dp282
S'maximum_status'
p283
g12
sg5
F2.5362023996340555
ssS'TMS_hdcea_c'
p284
(dp285
S'maximum_status'
p286
g22
sg5
NssS'TMS_acolipa_p'
p287
(dp288
S'maximum_status'
p289
g12
sg5
F2.5362023996340572
ssS'TMS_hdcea_p'
p290
(dp291
S'maximum_status'
p292
g12
sg5
F2.5362023996266747
ssS'TMS_ca2_c'
p293
(dp294
S'maximum_status'
p295
g4
sg5
NssS'TMS_LalaDgluMdapDala_c'
p296
(dp297
S'maximum_status'
p298
g12
sg5
F2.5362023996340572
ssS'TMS_ca2_p'
p299
(dp300
S'maximum_status'
p301
g4
sg5
NssS'TMS_LalaDgluMdapDala_p'
p302
(dp303
S'maximum_status'
p304
g12
sg5
F2.5362023996340515
ssS'TMS_galur_c'
p305
(dp306
S'maximum_status'
p307
g12
sg5
F2.5362023996340572
ssS'TMS_xtsn_p'
p308
(dp309
S'maximum_status'
p310
g12
sg5
F2.536202399626663
ssS'TMS_adcobn_c'
p311
(dp312
S'maximum_status'
p313
g12
sg5
F2.5362023996340572
ssS'TMS_trnaarg_c'
p314
(dp315
S'maximum_status'
p316
g12
sg5
F2.5362023996266645
ssS'TMS_udpg_c'
p317
(dp318
S'maximum_status'
p319
g4
sg5
NssS'TMS_pe180_c'
p320
(dp321
S'maximum_status'
p322
g4
sg5
NssS'TMS_acmum6p_c'
p323
(dp324
S'maximum_status'
p325
g12
sg5
F2.5362023996340732
ssS'TMS_xtsn_c'
p326
(dp327
S'maximum_status'
p328
g12
sg5
F2.536202398489861
ssS'TMS_ppbng_c'
p329
(dp330
S'maximum_status'
p331
g4
sg5
NssS'TMS_tpalm2eACP_c'
p332
(dp333
S'maximum_status'
p334
g4
sg5
NssS'TMS_dsbdrd_c'
p335
(dp336
S'maximum_status'
p337
g12
sg5
F2.5362023996340572
ssS'TMS_trnaasp_c'
p338
(dp339
S'maximum_status'
p340
g12
sg5
F2.5362023996266645
ssS'TMS_phetrna_c'
p341
(dp342
S'maximum_status'
p343
g12
sg5
F2.5362023996266565
ssS'TMS_lpp_p'
p344
(dp345
S'maximum_status'
p346
g12
sg5
F2.536202399626656
ssS'TMS_2agpg140_c'
p347
(dp348
S'maximum_status'
p349
g12
sg5
F2.536202399634063
ssS'TMS_no_p'
p350
(dp351
S'maximum_status'
p352
g12
sg5
F2.536202399626659
ssS'TMS_glu5sa_c'
p353
(dp354
S'maximum_status'
p355
g12
sg5
F2.5362023984866826
ssS'TMS_tagdp__D_c'
p356
(dp357
S'maximum_status'
p358
g12
sg5
F2.5362023996340572
ssS'TMS_scl_c'
p359
(dp360
S'maximum_status'
p361
g4
sg5
NssS'TMS_2agpg140_p'
p362
(dp363
S'maximum_status'
p364
g12
sg5
F2.5362023996340572
ssS'TMS_no_c'
p365
(dp366
S'maximum_status'
p367
g12
sg5
F2.5362023996266587
ssS'TMS_dsbcox_p'
p368
(dp369
S'maximum_status'
p370
g12
sg5
F2.5362023996340572
ssS'TMS_adphep__LD_c'
p371
(dp372
S'maximum_status'
p373
g4
sg5
NssS'TMS_oaa_p'
p374
(dp375
S'maximum_status'
p376
g12
sg5
F2.5362023996340572
ssS'TMS_oaa_c'
p377
(dp378
S'maximum_status'
p379
g4
sg5
NssS'TMS_ocdcaACP_c'
p380
(dp381
S'maximum_status'
p382
g4
sg5
NssS'TMS_tsul_p'
p383
(dp384
S'maximum_status'
p385
g12
sg5
F2.5362023996266805
ssS'TMS_xu5p__L_c'
p386
(dp387
S'maximum_status'
p388
g12
sg5
F2.536202399626655
ssS'TMS_salchs2_p'
p389
(dp390
S'maximum_status'
p391
g12
sg5
F2.536202399626663
ssS'TMS_frulys_p'
p392
(dp393
S'maximum_status'
p394
g12
sg5
F2.5362023996340572
ssS'TMS_2ohph_c'
p395
(dp396
S'maximum_status'
p397
g12
sg5
F2.5362023996340572
ssS'TMS_tsul_c'
p398
(dp399
S'maximum_status'
p400
g12
sg5
F2.5362023996340572
ssS'TMS_succ_c'
p401
(dp402
S'maximum_status'
p403
g22
sg5
NssS'TMS_salchs2_c'
p404
(dp405
S'maximum_status'
p406
g12
sg5
F2.5362023996340572
ssS'TMS_cdpdhdecg_c'
p407
(dp408
S'maximum_status'
p409
g4
sg5
NssS'TMS_atp_c'
p410
(dp411
S'maximum_status'
p412
g4
sg5
NssS'TMS_apg180_c'
p413
(dp414
S'maximum_status'
p415
g12
sg5
F2.5362023996340572
ssS'TMS_pan4p_c'
p416
(dp417
S'maximum_status'
p418
g4
sg5
NssS'TMS_ttdca_c'
p419
(dp420
S'maximum_status'
p421
g22
sg5
NssS'TMS_murein4px4px4p_p'
p422
(dp423
S'maximum_status'
p424
g12
sg5
F2.5362023996340675
ssS'TMS_sectrna_c'
p425
(dp426
S'maximum_status'
p427
g12
sg5
F2.5362023996266645
ssS'TMS_LalaLglu_c'
p428
(dp429
S'maximum_status'
p430
g12
sg5
F2.536202399626669
ssS'TMS_kdo8p_c'
p431
(dp432
S'maximum_status'
p433
g4
sg5
NssS'TMS_ttdca_p'
p434
(dp435
S'maximum_status'
p436
g12
sg5
F2.5362023996340572
ssS'TMS_3hddcoa_c'
p437
(dp438
S'maximum_status'
p439
g12
sg5
F2.5362023996340572
ssS'TMS_ni2_c'
p440
(dp441
S'maximum_status'
p442
g12
sg5
F2.536202399626654
ssS'TMS_fecrm_p'
p443
(dp444
S'maximum_status'
p445
g12
sg5
F2.5362023996340572
ssS'TMS_clpn181_p'
p446
(dp447
S'maximum_status'
p448
g4
sg5
NssS'TMS_ni2_p'
p449
(dp450
S'maximum_status'
p451
g12
sg5
F2.5362023996340572
ssS'TMS_fecrm_c'
p452
(dp453
S'maximum_status'
p454
g12
sg5
F2.536202399634061
ssS'TMS_myrsACP_c'
p455
(dp456
S'maximum_status'
p457
g4
sg5
NssS'TMS_lgt__S_c'
p458
(dp459
S'maximum_status'
p460
g12
sg5
F2.536202399634068
ssS'TMS_cmp_p'
p461
(dp462
S'maximum_status'
p463
g12
sg5
F2.536202399634061
ssS'TMS_pyr_p'
p464
(dp465
S'maximum_status'
p466
g12
sg5
F2.536202399634073
ssS'TMS_pyr_c'
p467
(dp468
S'maximum_status'
p469
g22
sg5
NssS'TMS_tre_c'
p470
(dp471
S'maximum_status'
p472
g12
sg5
F2.5362023996340572
ssS'TMS_pa180_c'
p473
(dp474
S'maximum_status'
p475
g4
sg5
NssS'TMS_asntrna_c'
p476
(dp477
S'maximum_status'
p478
g12
sg5
F2.5362023996266645
ssS'TMS_tre_p'
p479
(dp480
S'maximum_status'
p481
g12
sg5
F2.536202399626661
ssS'TMS_pa180_p'
p482
(dp483
S'maximum_status'
p484
g4
sg5
NssS'TMS_ppi_c'
p485
(dp486
S'maximum_status'
p487
g22
sg5
NssS'TMS_N1aspmd_c'
p488
(dp489
S'maximum_status'
p490
g12
sg5
F2.5362023996266645
ssS'TMS_fadh2_c'
p491
(dp492
S'maximum_status'
p493
g12
sg5
F2.536202399634057
ssS'TMS_rml1p_c'
p494
(dp495
S'maximum_status'
p496
g12
sg5
F2.5362023996340572
ssS'TMS_ps161_c'
p497
(dp498
S'maximum_status'
p499
g4
sg5
NssS'TMS_codscl2_c'
p500
(dp501
S'maximum_status'
p502
g12
sg5
F2.536202399626663
ssS'TMS_ade_c'
p503
(dp504
S'maximum_status'
p505
g22
sg5
NssS'TMS_3hhcoa_c'
p506
(dp507
S'maximum_status'
p508
g12
sg5
F2.5362023996340572
ssS'TMS_ade_p'
p509
(dp510
S'maximum_status'
p511
g12
sg5
F2.5345525828392623
ssS'TMS_fpram_c'
p512
(dp513
S'maximum_status'
p514
g12
sg5
F2.5362023996340572
ssS'TMS_tag__D_p'
p515
(dp516
S'maximum_status'
p517
g12
sg5
F2.536202399626664
ssS'TMS_aacoa_c'
p518
(dp519
S'maximum_status'
p520
g12
sg5
F2.5362023996266583
ssS'TMS_butso3_p'
p521
(dp522
S'maximum_status'
p523
g12
sg5
F2.5362023996340572
ssS'TMS_codscl4_c'
p524
(dp525
S'maximum_status'
p526
g12
sg5
F2.536202399626663
ssS'TMS_malcoa_c'
p527
(dp528
S'maximum_status'
p529
g4
sg5
NssS'TMS_1tdec7eg3p_c'
p530
(dp531
S'maximum_status'
p532
g12
sg5
F2.5362023996340572
ssS'TMS_5prdmbz_c'
p533
(dp534
S'maximum_status'
p535
g12
sg5
F2.5362023996340577
ssS'TMS_1tdecg3p_p'
p536
(dp537
S'maximum_status'
p538
g12
sg5
F2.536202399626654
ssS'TMS_1tdecg3p_c'
p539
(dp540
S'maximum_status'
p541
g4
sg5
NssS'TMS_eca4colipa_p'
p542
(dp543
S'maximum_status'
p544
g12
sg5
F2.5362023996340572
ssS'TMS_2hdec9eg3p_p'
p545
(dp546
S'maximum_status'
p547
g12
sg5
F2.5362023996340572
ssS'TMS_23dhb_c'
p548
(dp549
S'maximum_status'
p550
g12
sg5
F2.5362023996340572
ssS'TMS_5cm2hmu_c'
p551
(dp552
S'maximum_status'
p553
g12
sg5
F2.5362023996340572
ssS'TMS_2hdec9eg3p_c'
p554
(dp555
S'maximum_status'
p556
g12
sg5
F2.5362023996340572
ssS'TMS_glyclt_p'
p557
(dp558
S'maximum_status'
p559
g12
sg5
F2.5350733209085687
ssS'TMS_3oddcoa_c'
p560
(dp561
S'maximum_status'
p562
g12
sg5
F2.5362023996340572
ssS'TMS_udcdp19Oag_p'
p563
(dp564
S'maximum_status'
p565
g12
sg5
F2.5362023996340572
ssS'TMS_acg5p_c'
p566
(dp567
S'maximum_status'
p568
g4
sg5
NssS'TMS_adn_c'
p569
(dp570
S'maximum_status'
p571
g22
sg5
NssS'TMS_phe__L_p'
p572
(dp573
S'maximum_status'
p574
g4
sg5
NssS'TMS_Sfglutth_c'
p575
(dp576
S'maximum_status'
p577
g12
sg5
F2.5362023996340572
ssS'TMS_arab__L_p'
p578
(dp579
S'maximum_status'
p580
g12
sg5
F2.5362023996340572
ssS'TMS_phe__L_c'
p581
(dp582
S'maximum_status'
p583
g4
sg5
NssS'TMS_adn_p'
p584
(dp585
S'maximum_status'
p586
g4
sg5
NssS'TMS_cdpglc_c'
p587
(dp588
S'maximum_status'
p589
g4
sg5
NssS'TMS_arab__L_c'
p590
(dp591
S'maximum_status'
p592
g12
sg5
F2.5362023996340572
ssS'TMS_utp_c'
p593
(dp594
S'maximum_status'
p595
g4
sg5
NssS'TMS_seramp_c'
p596
(dp597
S'maximum_status'
p598
g12
sg5
F2.5362023996340572
ssS'TMS_imp_c'
p599
(dp600
S'maximum_status'
p601
g4
sg5
NssS'TMS_glyclt_c'
p602
(dp603
S'maximum_status'
p604
g22
sg5
NssS'TMS_pmcoa_c'
p605
(dp606
S'maximum_status'
p607
g12
sg5
F2.5362023996340572
ssS'TMS_imp_p'
p608
(dp609
S'maximum_status'
p610
g12
sg5
F2.5362023996340555
ssS'TMS_sucarg_c'
p611
(dp612
S'maximum_status'
p613
g12
sg5
F2.5362023996340572
ssS'TMS_glcr_p'
p614
(dp615
S'maximum_status'
p616
g12
sg5
F2.5362023996340572
ssS'TMS_app_c'
p617
(dp618
S'maximum_status'
p619
g12
sg5
F2.5362023996266645
ssS'TMS_udcdp15Oag_p'
p620
(dp621
S'maximum_status'
p622
g12
sg5
F2.5362023996340572
ssS'TMS_uamr_c'
p623
(dp624
S'maximum_status'
p625
g4
sg5
NssS'TMS_2h5cmmusa_c'
p626
(dp627
S'maximum_status'
p628
g12
sg5
F2.5362023996340572
ssS'TMS_fe3hox_c'
p629
(dp630
S'maximum_status'
p631
g12
sg5
F2.5362023996340572
ssS'TMS_stcoa_c'
p632
(dp633
S'maximum_status'
p634
g12
sg5
F2.5362023996340737
ssS'TMS_anhgm_p'
p635
(dp636
S'maximum_status'
p637
g12
sg5
F2.536202399634063
ssS'TMS_4abutn_c'
p638
(dp639
S'maximum_status'
p640
g12
sg5
F2.5362023996340572
ssS'TMS_pheme_p'
p641
(dp642
S'maximum_status'
p643
g12
sg5
F2.5362023996340572
ssS'TMS_alatrna_c'
p644
(dp645
S'maximum_status'
p646
g12
sg5
F2.5362023996266645
ssS'TMS_dtdp4d6dg_c'
p647
(dp648
S'maximum_status'
p649
g4
sg5
NssS'TMS_pheme_c'
p650
(dp651
S'maximum_status'
p652
g12
sg5
F2.5362023996340572
ssS'TMS_23dhmb_c'
p653
(dp654
S'maximum_status'
p655
g12
sg5
F2.5362023986966644
ssS'TMS_cbl1_p'
p656
(dp657
S'maximum_status'
p658
g12
sg5
F2.5362023996340555
ssS'TMS_3pg_c'
p659
(dp660
S'maximum_status'
p661
g4
sg5
NssS'TMS_glcur_c'
p662
(dp663
S'maximum_status'
p664
g12
sg5
F2.536202399634061
ssS'TMS_cbl1_c'
p665
(dp666
S'maximum_status'
p667
g12
sg5
F2.5362023996340572
ssS'TMS_3pg_p'
p668
(dp669
S'maximum_status'
p670
g12
sg5
F2.5362023996266707
ssS'TMS_glcur_p'
p671
(dp672
S'maximum_status'
p673
g12
sg5
F2.5362023996340572
ssS'TMS_tmrs2eACP_c'
p674
(dp675
S'maximum_status'
p676
g4
sg5
NssS'TMS_gbbtn_c'
p677
(dp678
S'maximum_status'
p679
g12
sg5
F2.5362023996340572
ssS'TMS_thr__L_c'
p680
(dp681
S'maximum_status'
p682
g22
sg5
NssS'TMS_fe3hox_p'
p683
(dp684
S'maximum_status'
p685
g12
sg5
F2.5362023996340572
ssS'TMS_xylu__D_c'
p686
(dp687
S'maximum_status'
p688
g12
sg5
F2.5362023996340533
ssS'TMS_gbbtn_p'
p689
(dp690
S'maximum_status'
p691
g12
sg5
F2.5362023996340572
ssS'TMS_dmbzid_c'
p692
(dp693
S'maximum_status'
p694
g12
sg5
F2.5362023996340572
ssS'TMS_thr__L_p'
p695
(dp696
S'maximum_status'
p697
g4
sg5
NssS'TMS_lpp_sp_p'
p698
(dp699
S'maximum_status'
p700
g12
sg5
F2.5362023996266645
ssS'TMS_asn__L_p'
p701
(dp702
S'maximum_status'
p703
g12
sg5
F2.5362023996266676
ssS'TMS_xan_c'
p704
(dp705
S'maximum_status'
p706
g22
sg5
NssS'TMS_cdpdddecg_c'
p707
(dp708
S'maximum_status'
p709
g12
sg5
F2.536202399634059
ssS'TMS_lcts_p'
p710
(dp711
S'maximum_status'
p712
g12
sg5
F2.5362023996340572
ssS'TMS_asn__L_c'
p713
(dp714
S'maximum_status'
p715
g4
sg5
NssS'TMS_citr__L_c'
p716
(dp717
S'maximum_status'
p718
g22
sg5
NssS'TMS_2agpe140_c'
p719
(dp720
S'maximum_status'
p721
g12
sg5
F2.5362023996266654
ssS'TMS_pacald_c'
p722
(dp723
S'maximum_status'
p724
g12
sg5
F2.5362023996340572
ssS'TMS_pgp120_c'
p725
(dp726
S'maximum_status'
p727
g12
sg5
F2.5362023996340572
ssS'TMS_adphep__DD_c'
p728
(dp729
S'maximum_status'
p730
g4
sg5
NssS'TMS_2agpe140_p'
p731
(dp732
S'maximum_status'
p733
g12
sg5
F2.5362023996340572
ssS'TMS_pgp120_p'
p734
(dp735
S'maximum_status'
p736
g12
sg5
F2.536202399634061
ssS'TMS_pacald_p'
p737
(dp738
S'maximum_status'
p739
g12
sg5
F2.5362023996340572
ssS'TMS_prolpp_c'
p740
(dp741
S'maximum_status'
p742
g12
sg5
F2.5362023996266645
ssS'TMS_adp_c'
p743
(dp744
S'maximum_status'
p745
g4
sg5
NssS'TMS_1agpg160_p'
p746
(dp747
S'maximum_status'
p748
g12
sg5
F2.5362023996266747
ssS'TMS_co2_c'
p749
(dp750
S'maximum_status'
p751
g4
sg5
NssS'TMS_23dhbzs2_c'
p752
(dp753
S'maximum_status'
p754
g12
sg5
F2.5362023996340572
ssS'TMS_pgp160_p'
p755
(dp756
S'maximum_status'
p757
g12
sg5
F2.5362023996340572
ssS'TMS_fe3dhbzs3_p'
p758
(dp759
S'maximum_status'
p760
g12
sg5
F2.5362023996340572
ssS'TMS_co2_p'
p761
(dp762
S'maximum_status'
p763
g4
sg5
NssS'TMS_pgp160_c'
p764
(dp765
S'maximum_status'
p766
g4
sg5
NssS'TMS_fe3dhbzs3_c'
p767
(dp768
S'maximum_status'
p769
g12
sg5
F2.5362023996340572
ssS'TMS_glcn_p'
p770
(dp771
S'maximum_status'
p772
g12
sg5
F2.5362023996340572
ssS'TMS_mmcoa__S_c'
p773
(dp774
S'maximum_status'
p775
g12
sg5
F2.5362023996340555
ssS'TMS_glcn_c'
p776
(dp777
S'maximum_status'
p778
g12
sg5
F2.5362023996340572
ssS'TMS_feroxE_p'
p779
(dp780
S'maximum_status'
p781
g12
sg5
F2.5362023996340572
ssS'TMS_feroxG_c'
p782
(dp783
S'maximum_status'
p784
g12
sg5
F2.5362023996266654
ssS'TMS_murein5px4px4p_p'
p785
(dp786
S'maximum_status'
p787
g12
sg5
F2.536202399634061
ssS'TMS_octeACP_c'
p788
(dp789
S'maximum_status'
p790
g4
sg5
NssS'TMS_feroxE_c'
p791
(dp792
S'maximum_status'
p793
g12
sg5
F2.5362023996340555
ssS'TMS_sucbz_c'
p794
(dp795
S'maximum_status'
p796
g12
sg5
F2.5362023996340572
ssS'TMS_clpn140_p'
p797
(dp798
S'maximum_status'
p799
g4
sg5
NssS'TMS_feroxG_p'
p800
(dp801
S'maximum_status'
p802
g12
sg5
F2.5362023996266525
ssS'TMS_cdpdhdec9eg_c'
p803
(dp804
S'maximum_status'
p805
g4
sg5
NssS'TMS_dkdi_c'
p806
(dp807
S'maximum_status'
p808
g12
sg5
F2.5362023996340572
ssS'TMS_4ppcys_c'
p809
(dp810
S'maximum_status'
p811
g4
sg5
NssS'TMS_sulfac_p'
p812
(dp813
S'maximum_status'
p814
g12
sg5
F2.5362023996340572
ssS'TMS_lald__D_c'
p815
(dp816
S'maximum_status'
p817
g12
sg5
F2.5362023996266667
ssS'TMS_unagamu_c'
p818
(dp819
S'maximum_status'
p820
g12
sg5
F2.5362023996266676
ssS'TMS_cyan_p'
p821
(dp822
S'maximum_status'
p823
g12
sg5
F2.5362023996340572
ssS'TMS_2agpg161_c'
p824
(dp825
S'maximum_status'
p826
g12
sg5
F2.536202399626659
ssS'TMS_2agpg161_p'
p827
(dp828
S'maximum_status'
p829
g12
sg5
F2.536202399626677
ssS'TMS_cyan_c'
p830
(dp831
S'maximum_status'
p832
g12
sg5
F2.5362023996340572
ssS'TMS_hxa_c'
p833
(dp834
S'maximum_status'
p835
g12
sg5
F2.5362023996340572
ssS'TMS_zn2_c'
p836
(dp837
S'maximum_status'
p838
g4
sg5
NssS'TMS_2agpe181_c'
p839
(dp840
S'maximum_status'
p841
g12
sg5
F2.5362023996340572
ssS'TMS_hxa_p'
p842
(dp843
S'maximum_status'
p844
g12
sg5
F2.5362023996340572
ssS'TMS_udpgalfur_c'
p845
(dp846
S'maximum_status'
p847
g12
sg5
F2.5362023996340555
ssS'TMS_uama_c'
p848
(dp849
S'maximum_status'
p850
g4
sg5
NssS'TMS_2agpe181_p'
p851
(dp852
S'maximum_status'
p853
g12
sg5
F2.5362023996340572
ssS'TMS_2oh3d_c'
p854
(dp855
S'maximum_status'
p856
g12
sg5
F2.5362023996340572
ssS'TMS_6hmhpt_c'
p857
(dp858
S'maximum_status'
p859
g4
sg5
NssS'TMS_udcdp12Oag_p'
p860
(dp861
S'maximum_status'
p862
g12
sg5
F2.5362023996340572
ssS'TMS_udcdpgalrmn_c'
p863
(dp864
S'maximum_status'
p865
g12
sg5
F2.536202399626671
ssS'TMS_23dhdp_c'
p866
(dp867
S'maximum_status'
p868
g4
sg5
NssS'TMS_inost_c'
p869
(dp870
S'maximum_status'
p871
g12
sg5
F2.5362023996266774
ssS'TMS_feroxGfe_p'
p872
(dp873
S'maximum_status'
p874
g12
sg5
F2.5362023996340572
ssS'TMS_inost_p'
p875
(dp876
S'maximum_status'
p877
g12
sg5
F2.5362023996340572
ssS'TMS_feroxGfe_c'
p878
(dp879
S'maximum_status'
p880
g12
sg5
F2.5362023996340572
ssS'TMS_prfp_c'
p881
(dp882
S'maximum_status'
p883
g12
sg5
F2.5362023996340572
ssS'TMS_chol_p'
p884
(dp885
S'maximum_status'
p886
g12
sg5
F2.5362023996340572
ssS'TMS_na1_p'
p887
(dp888
S'maximum_status'
p889
g4
sg5
NssS'TMS_etha_c'
p890
(dp891
S'maximum_status'
p892
g12
sg5
F2.5362023996266583
ssS'TMS_lys__L_p'
p893
(dp894
S'maximum_status'
p895
g4
sg5
NssS'TMS_na1_c'
p896
(dp897
S'maximum_status'
p898
g4
sg5
NssS'TMS_chol_c'
p899
(dp900
S'maximum_status'
p901
g12
sg5
F2.5362023996340572
ssS'TMS_etha_p'
p902
(dp903
S'maximum_status'
p904
g12
sg5
F2.5362023996266814
ssS'TMS_glcur1p_p'
p905
(dp906
S'maximum_status'
p907
g12
sg5
F2.5362023996340572
ssS'TMS_2agpe180_p'
p908
(dp909
S'maximum_status'
p910
g12
sg5
F2.5362023996340572
ssS'TMS_pa140_p'
p911
(dp912
S'maximum_status'
p913
g4
sg5
NssS'TMS_2shchc_c'
p914
(dp915
S'maximum_status'
p916
g12
sg5
F2.5362023996340572
ssS'TMS_5caiz_c'
p917
(dp918
S'maximum_status'
p919
g12
sg5
F2.5362023996340572
ssS'TMS_apg161_c'
p920
(dp921
S'maximum_status'
p922
g12
sg5
F2.5362023996340572
ssS'TMS_dhpt_c'
p923
(dp924
S'maximum_status'
p925
g4
sg5
NssS'TMS_pa140_c'
p926
(dp927
S'maximum_status'
p928
g4
sg5
NssS'TMS_2agpe180_c'
p929
(dp930
S'maximum_status'
p931
g12
sg5
F2.536202399626656
ssS'TMS_amet_c'
p932
(dp933
S'maximum_status'
p934
g4
sg5
NssS'TMS_acglc__D_c'
p935
(dp936
S'maximum_status'
p937
g12
sg5
F2.5362023996266716
ssS'TMS_codscl6b_c'
p938
(dp939
S'maximum_status'
p940
g12
sg5
F2.5362023996340572
ssS'TMS_1agpe141_p'
p941
(dp942
S'maximum_status'
p943
g12
sg5
F2.536202399634063
ssS'TMS_2pg_c'
p944
(dp945
S'maximum_status'
p946
g4
sg5
NssS'TMS_hxcoa_c'
p947
(dp948
S'maximum_status'
p949
g12
sg5
F2.536202399626662
ssS'TMS_hexACP_c'
p950
(dp951
S'maximum_status'
p952
g4
sg5
NssS'TMS_apg120_c'
p953
(dp954
S'maximum_status'
p955
g12
sg5
F2.5362023996340572
ssS'TMS_ump_c'
p956
(dp957
S'maximum_status'
p958
g4
sg5
NssS'TMS_damp_c'
p959
(dp960
S'maximum_status'
p961
g12
sg5
F2.5362023996266805
ssS'TMS_4mhetz_c'
p962
(dp963
S'maximum_status'
p964
g12
sg5
F2.5362023996266654
ssS'TMS_lys__L_c'
p965
(dp966
S'maximum_status'
p967
g22
sg5
NssS'TMS_damp_p'
p968
(dp969
S'maximum_status'
p970
g12
sg5
F2.5362023996266703
ssS'TMS_ump_p'
p971
(dp972
S'maximum_status'
p973
g12
sg5
F2.5362023996266516
ssS'TMS_nmn_p'
p974
(dp975
S'maximum_status'
p976
g12
sg5
F2.5362023996340572
ssS'TMS_csn_c'
p977
(dp978
S'maximum_status'
p979
g22
sg5
NssS'TMS_nmn_c'
p980
(dp981
S'maximum_status'
p982
g12
sg5
F2.5362023996340572
ssS'TMS_udp_c'
p983
(dp984
S'maximum_status'
p985
g4
sg5
NssS'TMS_csn_p'
p986
(dp987
S'maximum_status'
p988
g12
sg5
F2.5362023996340572
ssS'TMS_pydx_c'
p989
(dp990
S'maximum_status'
p991
g12
sg5
F2.5362023996340572
ssS'TMS_sertrna__sec___c'
p992
(dp993
S'maximum_status'
p994
g12
sg5
F2.5362023996266525
ssS'TMS_colipa20Oag_p'
p995
(dp996
S'maximum_status'
p997
g12
sg5
F2.5362023996340572
ssS'TMS_acACP_c'
p998
(dp999
S'maximum_status'
p1000
g12
sg5
F2.5362023996340572
ssS'TMS_pydx_p'
p1001
(dp1002
S'maximum_status'
p1003
g12
sg5
F2.5362023996340572
ssS'TMS_lipidAds_c'
p1004
(dp1005
S'maximum_status'
p1006
g4
sg5
NssS'TMS_hdeACP_c'
p1007
(dp1008
S'maximum_status'
p1009
g4
sg5
NssS'TMS_xyl__D_p'
p1010
(dp1011
S'maximum_status'
p1012
g12
sg5
F2.5362023996340572
ssS'TMS_acgal_p'
p1013
(dp1014
S'maximum_status'
p1015
g12
sg5
F2.5362023996340572
ssS'TMS_trnagln_c'
p1016
(dp1017
S'maximum_status'
p1018
g12
sg5
F2.536202399634041
ssS'TMS_gdptp_c'
p1019
(dp1020
S'maximum_status'
p1021
g12
sg5
F2.5362023996340572
ssS'TMS_pep_p'
p1022
(dp1023
S'maximum_status'
p1024
g12
sg5
F2.5362023996266583
ssS'TMS_fldrd_c'
p1025
(dp1026
S'maximum_status'
p1027
g12
sg5
F2.5346597710469507
ssS'TMS_2dr5p_c'
p1028
(dp1029
S'maximum_status'
p1030
g4
sg5
NssS'TMS_pep_c'
p1031
(dp1032
S'maximum_status'
p1033
g22
sg5
NssS'TMS_34hpp_c'
p1034
(dp1035
S'maximum_status'
p1036
g12
sg5
F2.5362023996340572
ssS'TMS_n2o_p'
p1037
(dp1038
S'maximum_status'
p1039
g12
sg5
F2.5362023996340572
ssS'TMS_nh4_p'
p1040
(dp1041
S'maximum_status'
p1042
g4
sg5
NssS'TMS_mal__L_p'
p1043
(dp1044
S'maximum_status'
p1045
g12
sg5
F2.5362023996340572
ssS'TMS_udpLa4fn_c'
p1046
(dp1047
S'maximum_status'
p1048
g12
sg5
F2.536202399626663
ssS'TMS_nh4_c'
p1049
(dp1050
S'maximum_status'
p1051
g4
sg5
NssS'TMS_n2o_c'
p1052
(dp1053
S'maximum_status'
p1054
g12
sg5
F2.5362023996340572
ssS'TMS_eca2und_p'
p1055
(dp1056
S'maximum_status'
p1057
g12
sg5
F2.5362023996340572
ssS'TMS_ap5a_c'
p1058
(dp1059
S'maximum_status'
p1060
g12
sg5
F2.5362023996266645
ssS'TMS_4ppan_c'
p1061
(dp1062
S'maximum_status'
p1063
g4
sg5
NssS'TMS_kphphhlipa_c'
p1064
(dp1065
S'maximum_status'
p1066
g4
sg5
NssS'TMS_trnaala_c'
p1067
(dp1068
S'maximum_status'
p1069
g12
sg5
F2.5362023996266645
ssS'TMS_ugmd_c'
p1070
(dp1071
S'maximum_status'
p1072
g4
sg5
NssS'TMS_lyx__L_c'
p1073
(dp1074
S'maximum_status'
p1075
g12
sg5
F2.5362023996340572
ssS'TMS_etoh_p'
p1076
(dp1077
S'maximum_status'
p1078
g4
sg5
NssS'TMS_minohp_p'
p1079
(dp1080
S'maximum_status'
p1081
g12
sg5
F2.5362023996266645
ssS'TMS_cbi_p'
p1082
(dp1083
S'maximum_status'
p1084
g12
sg5
F2.5362023996340572
ssS'TMS_etoh_c'
p1085
(dp1086
S'maximum_status'
p1087
g4
sg5
NssS'TMS_thdp_c'
p1088
(dp1089
S'maximum_status'
p1090
g4
sg5
NssS'TMS_cbi_c'
p1091
(dp1092
S'maximum_status'
p1093
g12
sg5
F2.5362023996340572
ssS'TMS_aso3_p'
p1094
(dp1095
S'maximum_status'
p1096
g12
sg5
F2.5362023996340572
ssS'TMS_3c3hmp_c'
p1097
(dp1098
S'maximum_status'
p1099
g12
sg5
F2.5362023996340572
ssS'TMS_2ins_c'
p1100
(dp1101
S'maximum_status'
p1102
g12
sg5
F2.5362023996266774
ssS'TMS_dtdp4aaddg_c'
p1103
(dp1104
S'maximum_status'
p1105
g12
sg5
F2.5362023996266703
ssS'TMS_acanth_c'
p1106
(dp1107
S'maximum_status'
p1108
g12
sg5
F2.5362023996266645
ssS'TMS_2p4c2me_c'
p1109
(dp1110
S'maximum_status'
p1111
g12
sg5
F2.5362023996340572
ssS'TMS_feroxEfe_c'
p1112
(dp1113
S'maximum_status'
p1114
g12
sg5
F2.5362023996340572
ssS'TMS_2agpg160_p'
p1115
(dp1116
S'maximum_status'
p1117
g12
sg5
F2.536202399634056
ssS'TMS_maltttr_p'
p1118
(dp1119
S'maximum_status'
p1120
g12
sg5
F2.5362023996340572
ssS'TMS_dcmp_p'
p1121
(dp1122
S'maximum_status'
p1123
g12
sg5
F2.5362023996340572
ssS'TMS_hmgth_c'
p1124
(dp1125
S'maximum_status'
p1126
g12
sg5
F2.5362023996340572
ssS'TMS_feroxEfe_p'
p1127
(dp1128
S'maximum_status'
p1129
g12
sg5
F2.5362023996340572
ssS'TMS_fuc__L_p'
p1130
(dp1131
S'maximum_status'
p1132
g12
sg5
F2.5362023996340572
ssS'TMS_2agpg160_c'
p1133
(dp1134
S'maximum_status'
p1135
g12
sg5
F2.536202399634076
ssS'TMS_ppoh_c'
p1136
(dp1137
S'maximum_status'
p1138
g12
sg5
F2.5362023996340572
ssS'TMS_dcmp_c'
p1139
(dp1140
S'maximum_status'
p1141
g22
sg5
NssS'TMS_nad_c'
p1142
(dp1143
S'maximum_status'
p1144
g4
sg5
NssS'TMS_12dgr140_p'
p1145
(dp1146
S'maximum_status'
p1147
g4
sg5
NssS'TMS_12dgr140_c'
p1148
(dp1149
S'maximum_status'
p1150
g12
sg5
F2.5362023996340572
ssS'TMS_dcyt_p'
p1151
(dp1152
S'maximum_status'
p1153
g4
sg5
NssS'TMS_didp_c'
p1154
(dp1155
S'maximum_status'
p1156
g12
sg5
F2.5362023996266645
ssS'TMS_8aonn_c'
p1157
(dp1158
S'maximum_status'
p1159
g12
sg5
F2.5362023996340572
ssS'TMS_orot_p'
p1160
(dp1161
S'maximum_status'
p1162
g12
sg5
F2.5362023996340572
ssS'TMS_glyc3p_p'
p1163
(dp1164
S'maximum_status'
p1165
g12
sg5
F2.5362023996266667
ssS'TMS_rbl__L_c'
p1166
(dp1167
S'maximum_status'
p1168
g12
sg5
F2.536202399626669
ssS'TMS_cob1nda_c'
p1169
(dp1170
S'maximum_status'
p1171
g12
sg5
F2.5362023996340572
ssS'TMS_hdcoa_c'
p1172
(dp1173
S'maximum_status'
p1174
g12
sg5
F2.5362023996266747
ssS'TMS_udcpo5_p'
p1175
(dp1176
S'maximum_status'
p1177
g4
sg5
NssS'TMS_orot_c'
p1178
(dp1179
S'maximum_status'
p1180
g12
sg5
F2.5362023996340572
ssS'TMS_glyc3p_c'
p1181
(dp1182
S'maximum_status'
p1183
g22
sg5
NssS'TMS_s_c'
p1184
(dp1185
S'maximum_status'
p1186
g12
sg5
F2.5362023996266654
ssS'TMS_ddcacoa_c'
p1187
(dp1188
S'maximum_status'
p1189
g12
sg5
F2.5362023996340572
ssS'TMS_udcpo5_c'
p1190
(dp1191
S'maximum_status'
p1192
g4
sg5
NssS'TMS_acald_p'
p1193
(dp1194
S'maximum_status'
p1195
g12
sg5
F2.5362023996340572
ssS'TMS_3hdecACP_c'
p1196
(dp1197
S'maximum_status'
p1198
g4
sg5
NssS'TMS_acald_c'
p1199
(dp1200
S'maximum_status'
p1201
g4
sg5
NssS'TMS_fe3_p'
p1202
(dp1203
S'maximum_status'
p1204
g12
sg5
F2.5362023996340572
ssS'TMS_cobn_c'
p1205
(dp1206
S'maximum_status'
p1207
g12
sg5
F2.5362023996340572
ssS'TMS_ddca_p'
p1208
(dp1209
S'maximum_status'
p1210
g12
sg5
F2.5362023996340533
ssS'TMS_3php_c'
p1211
(dp1212
S'maximum_status'
p1213
g12
sg5
F2.536202399626665
ssS'TMS_acg5sa_c'
p1214
(dp1215
S'maximum_status'
p1216
g4
sg5
NssS'TMS_ddca_c'
p1217
(dp1218
S'maximum_status'
p1219
g12
sg5
F2.5362023996266676
ssS'TMS_LalaDglu_c'
p1220
(dp1221
S'maximum_status'
p1222
g12
sg5
F2.536202399626655
ssS'TMS_trnaile_c'
p1223
(dp1224
S'maximum_status'
p1225
g12
sg5
F2.5362023996266645
ssS'TMS_murein3px3p_p'
p1226
(dp1227
S'maximum_status'
p1228
g12
sg5
F2.5362023996340675
ssS'TMS_g3ps_p'
p1229
(dp1230
S'maximum_status'
p1231
g12
sg5
F2.5362023996340572
ssS'TMS_nicrnt_c'
p1232
(dp1233
S'maximum_status'
p1234
g4
sg5
NssS'TMS_uaccg_c'
p1235
(dp1236
S'maximum_status'
p1237
g4
sg5
NssS'TMS_uacgam_p'
p1238
(dp1239
S'maximum_status'
p1240
g12
sg5
F2.536202399626656
ssS'TMS_10fthf_c'
p1241
(dp1242
S'maximum_status'
p1243
g12
sg5
F2.5362023996266707
ssS'TMS_malthx_p'
p1244
(dp1245
S'maximum_status'
p1246
g12
sg5
F2.5362023996340572
ssS'TMS_r1p_c'
p1247
(dp1248
S'maximum_status'
p1249
g4
sg5
NssS'TMS_malthx_c'
p1250
(dp1251
S'maximum_status'
p1252
g12
sg5
F2.536202399626658
ssS'TMS_udcdp13Oag_p'
p1253
(dp1254
S'maximum_status'
p1255
g12
sg5
F2.5362023996340572
ssS'TMS_15dap_c'
p1256
(dp1257
S'maximum_status'
p1258
g12
sg5
F2.5362023996340572
ssS'TMS_hisp_c'
p1259
(dp1260
S'maximum_status'
p1261
g12
sg5
F2.5362023996340572
ssS'TMS_15dap_p'
p1262
(dp1263
S'maximum_status'
p1264
g12
sg5
F2.5362023996340572
ssS'TMS_murein_lpp_p'
p1265
(dp1266
S'maximum_status'
p1267
g12
sg5
F2.5362023996266645
ssS'TMS_23dhbzs3_c'
p1268
(dp1269
S'maximum_status'
p1270
g12
sg5
F2.5362023996340572
ssS'TMS_1agpe181_p'
p1271
(dp1272
S'maximum_status'
p1273
g12
sg5
F2.5362023996340572
ssS'TMS_mal__D_p'
p1274
(dp1275
S'maximum_status'
p1276
g12
sg5
F2.5362023996340572
ssS'TMS_mal__D_c'
p1277
(dp1278
S'maximum_status'
p1279
g12
sg5
F2.5362023996266645
ssS'TMS_d5kg_c'
p1280
(dp1281
S'maximum_status'
p1282
g12
sg5
F2.5362023996340572
ssS'TMS_thym_c'
p1283
(dp1284
S'maximum_status'
p1285
g22
sg5
NssS'TMS_xdp_c'
p1286
(dp1287
S'maximum_status'
p1288
g12
sg5
F2.5362023996266645
ssS'TMS_thym_p'
p1289
(dp1290
S'maximum_status'
p1291
g4
sg5
NssS'TMS_chor_c'
p1292
(dp1293
S'maximum_status'
p1294
g4
sg5
NssS'TMS_crncoa_c'
p1295
(dp1296
S'maximum_status'
p1297
g12
sg5
F2.5362023996340572
ssS'TMS_acgam6p_c'
p1298
(dp1299
S'maximum_status'
p1300
g12
sg5
F2.5362023996266654
ssS'TMS_sbt6p_c'
p1301
(dp1302
S'maximum_status'
p1303
g12
sg5
F2.5362023996340572
ssS'TMS_rml_c'
p1304
(dp1305
S'maximum_status'
p1306
g12
sg5
F2.5362023996340572
ssS'TMS_hhlipa_c'
p1307
(dp1308
S'maximum_status'
p1309
g4
sg5
NssS'TMS_ugmda_c'
p1310
(dp1311
S'maximum_status'
p1312
g4
sg5
NssS'TMS_glu__L_p'
p1313
(dp1314
S'maximum_status'
p1315
g4
sg5
NssS'TMS_3dhgulnp_c'
p1316
(dp1317
S'maximum_status'
p1318
g12
sg5
F2.536202399634058
ssS'TMS_glu__L_c'
p1319
(dp1320
S'maximum_status'
p1321
g22
sg5
NssS'TMS_ru5p__L_c'
p1322
(dp1323
S'maximum_status'
p1324
g12
sg5
F2.536202399626655
ssS'TMS_udcdp9Oag_p'
p1325
(dp1326
S'maximum_status'
p1327
g12
sg5
F2.5362023996340572
ssS'TMS_3oddecACP_c'
p1328
(dp1329
S'maximum_status'
p1330
g4
sg5
NssS'TMS_dtdprmn_c'
p1331
(dp1332
S'maximum_status'
p1333
g4
sg5
NssS'TMS_h2s_c'
p1334
(dp1335
S'maximum_status'
p1336
g4
sg5
NssS'TMS_malt_c'
p1337
(dp1338
S'maximum_status'
p1339
g12
sg5
F2.5362023996266685
ssS'TMS_3ocpalm9eACP_c'
p1340
(dp1341
S'maximum_status'
p1342
g4
sg5
NssS'TMS_h2s_p'
p1343
(dp1344
S'maximum_status'
p1345
g12
sg5
F2.5362023996266574
ssS'TMS_malt_p'
p1346
(dp1347
S'maximum_status'
p1348
g12
sg5
F2.5362023996340572
ssS'TMS_12dgr180_c'
p1349
(dp1350
S'maximum_status'
p1351
g12
sg5
F2.5362023996340572
ssS'TMS_udcdp4Oag_p'
p1352
(dp1353
S'maximum_status'
p1354
g12
sg5
F2.5362023996340572
ssS'TMS_12dgr180_p'
p1355
(dp1356
S'maximum_status'
p1357
g4
sg5
NssS'TMS_4r5au_c'
p1358
(dp1359
S'maximum_status'
p1360
g4
sg5
NssS'TMS_phthr_c'
p1361
(dp1362
S'maximum_status'
p1363
g12
sg5
F2.5362023996340572
ssS'TMS_coa_c'
p1364
(dp1365
S'maximum_status'
p1366
g4
sg5
NssS'TMS_akg_p'
p1367
(dp1368
S'maximum_status'
p1369
g12
sg5
F2.5362023996340572
ssS'TMS_all__D_p'
p1370
(dp1371
S'maximum_status'
p1372
g12
sg5
F2.5362023996340572
ssS'TMS_duri_c'
p1373
(dp1374
S'maximum_status'
p1375
g4
sg5
NssS'TMS_1odec11eg3p_p'
p1376
(dp1377
S'maximum_status'
p1378
g12
sg5
F2.536202399626669
ssS'TMS_akg_c'
p1379
(dp1380
S'maximum_status'
p1381
g4
sg5
NssS'TMS_1odec11eg3p_c'
p1382
(dp1383
S'maximum_status'
p1384
g4
sg5
NssS'TMS_duri_p'
p1385
(dp1386
S'maximum_status'
p1387
g12
sg5
F2.5362023996340572
ssS'TMS_1hdecg3p_c'
p1388
(dp1389
S'maximum_status'
p1390
g4
sg5
NssS'TMS_ile__L_c'
p1391
(dp1392
S'maximum_status'
p1393
g22
sg5
NssS'TMS_entermg_c'
p1394
(dp1395
S'maximum_status'
p1396
g12
sg5
F2.5362023996340572
ssS'TMS_remnant1_p'
p1397
(dp1398
S'maximum_status'
p1399
g12
sg5
F2.5362023996340572
ssS'TMS_1hdecg3p_p'
p1400
(dp1401
S'maximum_status'
p1402
g12
sg5
F2.5362023996266654
ssS'TMS_apolpp_p'
p1403
(dp1404
S'maximum_status'
p1405
g12
sg5
F2.5362023996340572
ssS'TMS_remnant1_c'
p1406
(dp1407
S'maximum_status'
p1408
g12
sg5
F2.5362023996340572
ssS'TMS_sbt__D_p'
p1409
(dp1410
S'maximum_status'
p1411
g12
sg5
F2.5362023996340572
ssS'TMS_urea_c'
p1412
(dp1413
S'maximum_status'
p1414
g22
sg5
NssS'TMS_athr__L_c'
p1415
(dp1416
S'maximum_status'
p1417
g12
sg5
F2.5362023996340572
ssS'TMS_crnDcoa_c'
p1418
(dp1419
S'maximum_status'
p1420
g12
sg5
F2.5362023996340572
ssS'TMS_urea_p'
p1421
(dp1422
S'maximum_status'
p1423
g4
sg5
NssS'TMS_udpglcur_p'
p1424
(dp1425
S'maximum_status'
p1426
g12
sg5
F2.5362023996340572
ssS'TMS_tag6p__D_c'
p1427
(dp1428
S'maximum_status'
p1429
g12
sg5
F2.5362023996266823
ssS'TMS_pe160_c'
p1430
(dp1431
S'maximum_status'
p1432
g4
sg5
NssS'TMS_anhgm4p_p'
p1433
(dp1434
S'maximum_status'
p1435
g12
sg5
F2.5362023996340572
ssS'TMS_2dh3dgal6p_c'
p1436
(dp1437
S'maximum_status'
p1438
g12
sg5
F2.5362023996340533
ssS'TMS_gthox_p'
p1439
(dp1440
S'maximum_status'
p1441
g12
sg5
F2.5362023996340572
ssS'TMS_udpglcur_c'
p1442
(dp1443
S'maximum_status'
p1444
g12
sg5
F2.5362023996340572
ssS'TMS_acgal1p_p'
p1445
(dp1446
S'maximum_status'
p1447
g12
sg5
F2.5362023996340572
ssS'TMS_pe160_p'
p1448
(dp1449
S'maximum_status'
p1450
g4
sg5
NssS'TMS_anhgm4p_c'
p1451
(dp1452
S'maximum_status'
p1453
g12
sg5
F2.5362023996340572
ssS'TMS_udcdp3Oag_p'
p1454
(dp1455
S'maximum_status'
p1456
g12
sg5
F2.5362023996340572
ssS'TMS_2mahmp_c'
p1457
(dp1458
S'maximum_status'
p1459
g12
sg5
F2.5362023996340572
ssS'TMS_iasp_c'
p1460
(dp1461
S'maximum_status'
p1462
g12
sg5
F2.5362023996340572
ssS'TMS_1ddecg3p_c'
p1463
(dp1464
S'maximum_status'
p1465
g12
sg5
F2.5362023996340572
ssS'TMS_glu1sa_c'
p1466
(dp1467
S'maximum_status'
p1468
g4
sg5
NssS'TMS_23cump_p'
p1469
(dp1470
S'maximum_status'
p1471
g12
sg5
F2.5362023996340572
ssS'TMS_1ddecg3p_p'
p1472
(dp1473
S'maximum_status'
p1474
g12
sg5
F2.5362023996266663
ssS'TMS_hxan_p'
p1475
(dp1476
S'maximum_status'
p1477
g4
sg5
NssS'TMS_psd5p_c'
p1478
(dp1479
S'maximum_status'
p1480
g12
sg5
F2.5362023996266645
ssS'TMS_2dhguln_c'
p1481
(dp1482
S'maximum_status'
p1483
g12
sg5
F2.536202399634061
ssS'TMS_2oph_c'
p1484
(dp1485
S'maximum_status'
p1486
g12
sg5
F2.5362023996340572
ssS'TMS_hxan_c'
p1487
(dp1488
S'maximum_status'
p1489
g22
sg5
NssS'TMS_t3c9palmeACP_c'
p1490
(dp1491
S'maximum_status'
p1492
g4
sg5
NssS'TMS_tma_p'
p1493
(dp1494
S'maximum_status'
p1495
g12
sg5
F2.536202399626664
ssS'TMS_sheme_c'
p1496
(dp1497
S'maximum_status'
p1498
g4
sg5
NssS'TMS_murein5p5p5p_p'
p1499
(dp1500
S'maximum_status'
p1501
g12
sg5
F2.536202399634061
ssS'TMS_psclys_p'
p1502
(dp1503
S'maximum_status'
p1504
g12
sg5
F2.5362023996340572
ssS'TMS_gthox_c'
p1505
(dp1506
S'maximum_status'
p1507
g12
sg5
F2.5362023996340572
ssS'TMS_itp_c'
p1508
(dp1509
S'maximum_status'
p1510
g12
sg5
F2.5362023996266645
ssS'TMS_nadph_c'
p1511
(dp1512
S'maximum_status'
p1513
g4
sg5
NssS'TMS_ckdo_c'
p1514
(dp1515
S'maximum_status'
p1516
g4
sg5
NssS'TMS_3hddecACP_c'
p1517
(dp1518
S'maximum_status'
p1519
g4
sg5
NssS'TMS_4mpetz_c'
p1520
(dp1521
S'maximum_status'
p1522
g12
sg5
F2.5362023996340572
ssS'TMS_gtspmd_c'
p1523
(dp1524
S'maximum_status'
p1525
g12
sg5
F2.536202399626654
ssS'TMS_acac_p'
p1526
(dp1527
S'maximum_status'
p1528
g12
sg5
F2.5362023996340572
ssS'TMS_btnso_c'
p1529
(dp1530
S'maximum_status'
p1531
g12
sg5
F2.5362023996340572
ssS'TMS_trnatrp_c'
p1532
(dp1533
S'maximum_status'
p1534
g12
sg5
F2.5362023996266645
ssS'TMS_3dhguln_c'
p1535
(dp1536
S'maximum_status'
p1537
g12
sg5
F2.5362023996340572
ssS'TMS_trptrna_c'
p1538
(dp1539
S'maximum_status'
p1540
g12
sg5
F2.5362023996266654
ssS'TMS_sl2a6o_c'
p1541
(dp1542
S'maximum_status'
p1543
g4
sg5
NssS'TMS_gmp_p'
p1544
(dp1545
S'maximum_status'
p1546
g12
sg5
F2.5362023996340572
ssS'TMS_pg180_c'
p1547
(dp1548
S'maximum_status'
p1549
g12
sg5
F2.53619825281508
ssS'TMS_rbflvrd_c'
p1550
(dp1551
S'maximum_status'
p1552
g12
sg5
F2.5362023996340572
ssS'TMS_gmp_c'
p1553
(dp1554
S'maximum_status'
p1555
g4
sg5
NssS'TMS_trnacys_c'
p1556
(dp1557
S'maximum_status'
p1558
g12
sg5
F2.5362023996266645
ssS'TMS_pg180_p'
p1559
(dp1560
S'maximum_status'
p1561
g4
sg5
NssS'TMS_dxyl5p_c'
p1562
(dp1563
S'maximum_status'
p1564
g12
sg5
F2.5362023996340572
ssS'TMS_cdpdtdec7eg_c'
p1565
(dp1566
S'maximum_status'
p1567
g12
sg5
F2.536202399626671
ssS'TMS_glytrna_c'
p1568
(dp1569
S'maximum_status'
p1570
g12
sg5
F2.5362023996266645
ssS'TMS_pg141_p'
p1571
(dp1572
S'maximum_status'
p1573
g12
sg5
F2.536202399626652
ssS'TMS_cdec3eACP_c'
p1574
(dp1575
S'maximum_status'
p1576
g4
sg5
NssS'TMS_uagmda_c'
p1577
(dp1578
S'maximum_status'
p1579
g4
sg5
NssS'TMS_pg141_c'
p1580
(dp1581
S'maximum_status'
p1582
g12
sg5
F2.5362023996340572
ssS'TMS_4hbz_c'
p1583
(dp1584
S'maximum_status'
p1585
g12
sg5
F2.5362023996340572
ssS'TMS_5mta_c'
p1586
(dp1587
S'maximum_status'
p1588
g4
sg5
NssS'TMS_paps_c'
p1589
(dp1590
S'maximum_status'
p1591
g4
sg5
NssS'TMS_kdo2lipid4p_c'
p1592
(dp1593
S'maximum_status'
p1594
g12
sg5
F2.5362023996340572
ssS'TMS_3ocddec5eACP_c'
p1595
(dp1596
S'maximum_status'
p1597
g4
sg5
NssS'TMS_nadp_c'
p1598
(dp1599
S'maximum_status'
p1600
g4
sg5
NssS'TMS_u3hga_c'
p1601
(dp1602
S'maximum_status'
p1603
g4
sg5
NssS'TMS_din_p'
p1604
(dp1605
S'maximum_status'
p1606
g12
sg5
F2.5362023996266574
ssS'TMS_ocACP_c'
p1607
(dp1608
S'maximum_status'
p1609
g4
sg5
NssS'TMS_metsox__S__L_c'
p1610
(dp1611
S'maximum_status'
p1612
g12
sg5
F2.536202399634061
ssS'TMS_prpp_c'
p1613
(dp1614
S'maximum_status'
p1615
g4
sg5
NssS'TMS_dopa_p'
p1616
(dp1617
S'maximum_status'
p1618
g12
sg5
F2.5362023996340572
ssS'TMS_metsox__S__L_p'
p1619
(dp1620
S'maximum_status'
p1621
g12
sg5
F2.5362023996340572
ssS'TMS_xtp_c'
p1622
(dp1623
S'maximum_status'
p1624
g12
sg5
F2.536202399626663
ssS'TMS_din_c'
p1625
(dp1626
S'maximum_status'
p1627
g12
sg5
F2.5362023996266703
ssS'TMS_tartr__D_p'
p1628
(dp1629
S'maximum_status'
p1630
g12
sg5
F2.5362023996340572
ssS'TMS_tartr__D_c'
p1631
(dp1632
S'maximum_status'
p1633
g12
sg5
F2.536202399626656
ssS'TMS_acnam_c'
p1634
(dp1635
S'maximum_status'
p1636
g12
sg5
F2.5362023996340572
ssS'TMS_dms_p'
p1637
(dp1638
S'maximum_status'
p1639
g12
sg5
F2.5362023996340572
ssS'TMS_g6p_c'
p1640
(dp1641
S'maximum_status'
p1642
g22
sg5
NssS'TMS_acnam_p'
p1643
(dp1644
S'maximum_status'
p1645
g12
sg5
F2.5362023996340572
ssS'TMS_g6p_p'
p1646
(dp1647
S'maximum_status'
p1648
g12
sg5
F2.53620239963407
ssS'TMS_pe180_p'
p1649
(dp1650
S'maximum_status'
p1651
g4
sg5
NssS'TMS_h2o2_c'
p1652
(dp1653
S'maximum_status'
p1654
g12
sg5
F2.5362023996340572
ssS'TMS_gar_c'
p1655
(dp1656
S'maximum_status'
p1657
g12
sg5
F2.5362023996340612
ssS'TMS_mthgxl_c'
p1658
(dp1659
S'maximum_status'
p1660
g12
sg5
F2.5362023996340572
ssS'TMS_h2o2_p'
p1661
(dp1662
S'maximum_status'
p1663
g12
sg5
F2.5362023996340572
ssS'TMS_gdpofuc_c'
p1664
(dp1665
S'maximum_status'
p1666
g12
sg5
F2.5362023996340572
ssS'TMS_histd_c'
p1667
(dp1668
S'maximum_status'
p1669
g12
sg5
F2.5362023996340572
ssS'TMS_dcaACP_c'
p1670
(dp1671
S'maximum_status'
p1672
g4
sg5
NssS'TMS_cdp4dh6doglc_c'
p1673
(dp1674
S'maximum_status'
p1675
g4
sg5
NssS'TMS_4iz5pp_c'
p1676
(dp1677
S'maximum_status'
p1678
g4
sg5
NssS'TMS_man1p_c'
p1679
(dp1680
S'maximum_status'
p1681
g4
sg5
NssS'TMS_galur_p'
p1682
(dp1683
S'maximum_status'
p1684
g12
sg5
F2.5362023996340572
ssS'TMS_f6p_c'
p1685
(dp1686
S'maximum_status'
p1687
g4
sg5
NssS'TMS_nadh_c'
p1688
(dp1689
S'maximum_status'
p1690
g4
sg5
NssS'TMS_dd2coa_c'
p1691
(dp1692
S'maximum_status'
p1693
g12
sg5
F2.5362023996340572
ssS'TMS_tartr__L_p'
p1694
(dp1695
S'maximum_status'
p1696
g12
sg5
F2.5362023996340572
ssS'TMS_cddec5eACP_c'
p1697
(dp1698
S'maximum_status'
p1699
g4
sg5
NssS'TMS_dcyt_c'
p1700
(dp1701
S'maximum_status'
p1702
g4
sg5
NssS'TMS_3dhq_c'
p1703
(dp1704
S'maximum_status'
p1705
g4
sg5
NssS'TMS_tartr__L_c'
p1706
(dp1707
S'maximum_status'
p1708
g12
sg5
F2.5362023996340572
ssS'TMS_ps2_ST_p'
p1709
(dp1710
S'maximum_status'
p1711
g4
sg5
NssS'TMS_2amsa_c'
p1712
(dp1713
S'maximum_status'
p1714
g12
sg5
F2.5362023996340683
ssS'TMS_3mob_c'
p1715
(dp1716
S'maximum_status'
p1717
g4
sg5
NssS'TMS_tdecoa_c'
p1718
(dp1719
S'maximum_status'
p1720
g12
sg5
F2.5362023996340644
ssS'TMS_fald_c'
p1721
(dp1722
S'maximum_status'
p1723
g12
sg5
F2.5362023996340572
ssS'TMS_enter_c'
p1724
(dp1725
S'maximum_status'
p1726
g12
sg5
F2.5362023996340572
ssS'TMS_b2coa_c'
p1727
(dp1728
S'maximum_status'
p1729
g12
sg5
F2.536202399626663
ssS'TMS_3ohdcoa_c'
p1730
(dp1731
S'maximum_status'
p1732
g12
sg5
F2.5362023996340572
ssS'TMS_3oodcoa_c'
p1733
(dp1734
S'maximum_status'
p1735
g12
sg5
F2.5362023996266636
ssS'TMS_enter_p'
p1736
(dp1737
S'maximum_status'
p1738
g12
sg5
F2.5362023996266676
ssS'TMS_fald_p'
p1739
(dp1740
S'maximum_status'
p1741
g12
sg5
F2.536202399626656
ssS'TMS_12dgr120_p'
p1742
(dp1743
S'maximum_status'
p1744
g12
sg5
F2.5362023996340572
ssS'TMS_trnalys_c'
p1745
(dp1746
S'maximum_status'
p1747
g12
sg5
F2.5362023996266645
ssS'TMS_octdp_c'
p1748
(dp1749
S'maximum_status'
p1750
g12
sg5
F2.5362023996340572
ssS'TMS_12dgr120_c'
p1751
(dp1752
S'maximum_status'
p1753
g12
sg5
F2.536202399626656
ssS'TMS_seln_c'
p1754
(dp1755
S'maximum_status'
p1756
g12
sg5
F2.5362023996266645
ssS'TMS_thm_c'
p1757
(dp1758
S'maximum_status'
p1759
g12
sg5
F2.5362023996340572
ssS'TMS_adcob1nda_c'
p1760
(dp1761
S'maximum_status'
p1762
g12
sg5
F2.5362023996340572
ssS'TMS_2ddecg3p_p'
p1763
(dp1764
S'maximum_status'
p1765
g12
sg5
F2.5362023996340533
ssS'TMS_thm_p'
p1766
(dp1767
S'maximum_status'
p1768
g12
sg5
F2.5362023996340572
ssS'TMS_eca3und_p'
p1769
(dp1770
S'maximum_status'
p1771
g12
sg5
F2.5362023996340572
ssS'TMS_micit_c'
p1772
(dp1773
S'maximum_status'
p1774
g12
sg5
F2.5362023996340572
ssS'TMS_5c2o3ed_c'
p1775
(dp1776
S'maximum_status'
p1777
g12
sg5
F2.536202399634068
ssS'TMS_5mtr_c'
p1778
(dp1779
S'maximum_status'
p1780
g4
sg5
NssS'TMS_ps141_c'
p1781
(dp1782
S'maximum_status'
p1783
g12
sg5
F2.5362023996340572
ssS'TMS_2ddecg3p_c'
p1784
(dp1785
S'maximum_status'
p1786
g12
sg5
F2.536202399626661
ssS'TMS_gal_p'
p1787
(dp1788
S'maximum_status'
p1789
g12
sg5
F2.536202399634056
ssS'TMS_no3_c'
p1790
(dp1791
S'maximum_status'
p1792
g12
sg5
F2.5362023996266583
ssS'TMS_ddcaACP_c'
p1793
(dp1794
S'maximum_status'
p1795
g4
sg5
NssS'TMS_12dgr2_ST_p'
p1796
(dp1797
S'maximum_status'
p1798
g4
sg5
NssS'TMS_acmum_p'
p1799
(dp1800
S'maximum_status'
p1801
g12
sg5
F2.5362023996266645
ssS'TMS_g3p_c'
p1802
(dp1803
S'maximum_status'
p1804
g4
sg5
NssS'TMS_no3_p'
p1805
(dp1806
S'maximum_status'
p1807
g12
sg5
F2.536202399626676
ssS'TMS_gal_c'
p1808
(dp1809
S'maximum_status'
p1810
g12
sg5
F2.5362023996340572
ssS'TMS_uLa4fn_c'
p1811
(dp1812
S'maximum_status'
p1813
g12
sg5
F2.5362023996340572
ssS'TMS_23dappa_p'
p1814
(dp1815
S'maximum_status'
p1816
g12
sg5
F2.5362023996340595
ssS'TMS_1agpe120_p'
p1817
(dp1818
S'maximum_status'
p1819
g12
sg5
F2.5362023996340572
ssS'TMS_adocbi_c'
p1820
(dp1821
S'maximum_status'
p1822
g12
sg5
F2.5362023996340572
ssS'TMS_dscl_c'
p1823
(dp1824
S'maximum_status'
p1825
g4
sg5
NssS'TMS_clpn160_p'
p1826
(dp1827
S'maximum_status'
p1828
g4
sg5
NssS'TMS_dtbt_c'
p1829
(dp1830
S'maximum_status'
p1831
g12
sg5
F2.5362023996340572
ssS'TMS_succoa_c'
p1832
(dp1833
S'maximum_status'
p1834
g4
sg5
NssS'TMS_dudp_c'
p1835
(dp1836
S'maximum_status'
p1837
g12
sg5
F2.5362023996266814
ssS'TMS_tagur_c'
p1838
(dp1839
S'maximum_status'
p1840
g12
sg5
F2.5362023996340572
ssS'TMS_mettrna_c'
p1841
(dp1842
S'maximum_status'
p1843
g12
sg5
F2.5362023996340572
ssS'TMS_2dda7p_c'
p1844
(dp1845
S'maximum_status'
p1846
g4
sg5
NssS'TMS_murein4px4p_p'
p1847
(dp1848
S'maximum_status'
p1849
g12
sg5
F2.5362023996266654
ssS'TMS_urdglyc_c'
p1850
(dp1851
S'maximum_status'
p1852
g12
sg5
F2.536202399634061
ssS'TMS_gam1p_c'
p1853
(dp1854
S'maximum_status'
p1855
g4
sg5
NssS'TMS_hcys__L_c'
p1856
(dp1857
S'maximum_status'
p1858
g4
sg5
NssS'TMS_h2_c'
p1859
(dp1860
S'maximum_status'
p1861
g12
sg5
F2.5362023996340572
ssS'TMS_thf_c'
p1862
(dp1863
S'maximum_status'
p1864
g4
sg5
NssS'TMS_3hmrsACP_c'
p1865
(dp1866
S'maximum_status'
p1867
g4
sg5
NssS'TMS_h2_p'
p1868
(dp1869
S'maximum_status'
p1870
g12
sg5
F2.5362023996340572
ssS'TMS_grxox_c'
p1871
(dp1872
S'maximum_status'
p1873
g12
sg5
F2.5362023996340572
ssS'TMS_taur_p'
p1874
(dp1875
S'maximum_status'
p1876
g12
sg5
F2.5362023996340572
ssS'TMS_pyam5p_c'
p1877
(dp1878
S'maximum_status'
p1879
g12
sg5
F2.536202399626664
ssS'TMS_oxur_c'
p1880
(dp1881
S'maximum_status'
p1882
g12
sg5
F2.536202399626656
ssS'TMS_arbt6p_c'
p1883
(dp1884
S'maximum_status'
p1885
g12
sg5
F2.5362023996266645
ssS'TMS_fe3dhbzs_p'
p1886
(dp1887
S'maximum_status'
p1888
g12
sg5
F2.5362023996266667
ssS'TMS_fuc__L_c'
p1889
(dp1890
S'maximum_status'
p1891
g12
sg5
F2.5362023996340572
ssS'TMS_2ddg6p_c'
p1892
(dp1893
S'maximum_status'
p1894
g12
sg5
F2.536202399626662
ssS'TMS_appp_c'
p1895
(dp1896
S'maximum_status'
p1897
g12
sg5
F2.5362023996340683
ssS'TMS_malthp_c'
p1898
(dp1899
S'maximum_status'
p1900
g12
sg5
F2.5362023996340572
ssS'TMS_acser_c'
p1901
(dp1902
S'maximum_status'
p1903
g4
sg5
NssS'TMS_cbasp_c'
p1904
(dp1905
S'maximum_status'
p1906
g12
sg5
F2.5362023996340572
ssS'TMS_2pglyc_c'
p1907
(dp1908
S'maximum_status'
p1909
g12
sg5
F2.5362023996266645
ssS'TMS_4ampm_c'
p1910
(dp1911
S'maximum_status'
p1912
g12
sg5
F2.5362023996340572
ssS'TMS_gtp_c'
p1913
(dp1914
S'maximum_status'
p1915
g4
sg5
NssS'TMS_1hdec9eg3p_p'
p1916
(dp1917
S'maximum_status'
p1918
g12
sg5
F2.5362023996266654
ssS'TMS_hemeO_c'
p1919
(dp1920
S'maximum_status'
p1921
g12
sg5
F2.5362023996266654
ssS'TMS_gtp_p'
p1922
(dp1923
S'maximum_status'
p1924
g12
sg5
F2.5362023996340572
ssS'TMS_apoACP_c'
p1925
(dp1926
S'maximum_status'
p1927
g12
sg5
F2.5362023996266645
ssS'TMS_1hdec9eg3p_c'
p1928
(dp1929
S'maximum_status'
p1930
g4
sg5
NssS'TMS_idp_c'
p1931
(dp1932
S'maximum_status'
p1933
g12
sg5
F2.5362023996266516
ssS'TMS_glutrna_c'
p1934
(dp1935
S'maximum_status'
p1936
g4
sg5
NssS'TMS_udcpgr_c'
p1937
(dp1938
S'maximum_status'
p1939
g4
sg5
NssS'TMS_3hodcoa_c'
p1940
(dp1941
S'maximum_status'
p1942
g12
sg5
F2.5362023996266636
ssS'TMS_pgp141_c'
p1943
(dp1944
S'maximum_status'
p1945
g12
sg5
F2.5362023996266543
ssS'TMS_pa161_p'
p1946
(dp1947
S'maximum_status'
p1948
g4
sg5
NssS'TMS_2tpr3dpcoa_c'
p1949
(dp1950
S'maximum_status'
p1951
g12
sg5
F2.5362023996266645
ssS'TMS_grxrd_c'
p1952
(dp1953
S'maximum_status'
p1954
g12
sg5
F2.5362023996340572
ssS'TMS_pgp141_p'
p1955
(dp1956
S'maximum_status'
p1957
g12
sg5
F2.5362023996340572
ssS'TMS_pa161_c'
p1958
(dp1959
S'maximum_status'
p1960
g4
sg5
NssS'TMS_accoa_c'
p1961
(dp1962
S'maximum_status'
p1963
g4
sg5
NssS'TMS_o2_p'
p1964
(dp1965
S'maximum_status'
p1966
g4
sg5
NssS'TMS_hdca_c'
p1967
(dp1968
S'maximum_status'
p1969
g22
sg5
NssS'TMS_o2_c'
p1970
(dp1971
S'maximum_status'
p1972
g4
sg5
NssS'TMS_hdca_p'
p1973
(dp1974
S'maximum_status'
p1975
g12
sg5
F2.5362023996340572
ssS'TMS_25dkglcn_c'
p1976
(dp1977
S'maximum_status'
p1978
g12
sg5
F2.5362023996340572
ssS'TMS_dsbcrd_p'
p1979
(dp1980
S'maximum_status'
p1981
g12
sg5
F2.5362023996340572
ssS'TMS_unagamuf_c'
p1982
(dp1983
S'maximum_status'
p1984
g12
sg5
F2.536202399626655
ssS'TMS_34dhpac_p'
p1985
(dp1986
S'maximum_status'
p1987
g12
sg5
F2.5362023996340572
ssS'TMS_12dgr160_p'
p1988
(dp1989
S'maximum_status'
p1990
g4
sg5
NssS'TMS_12dgr160_c'
p1991
(dp1992
S'maximum_status'
p1993
g12
sg5
F2.536202399626669
ssS'TMS_unagamuf_p'
p1994
(dp1995
S'maximum_status'
p1996
g12
sg5
F2.5362023996340572
ssS'TMS_argsuc_c'
p1997
(dp1998
S'maximum_status'
p1999
g12
sg5
F2.536202399626654
ssS'TMS_3hoctaACP_c'
p2000
(dp2001
S'maximum_status'
p2002
g12
sg5
F2.5354395621799
ssS'TMS_hg2_p'
p2003
(dp2004
S'maximum_status'
p2005
g12
sg5
F2.536202399626656
ssS'TMS_apg140_c'
p2006
(dp2007
S'maximum_status'
p2008
g12
sg5
F2.5362023996340572
ssS'TMS_fgam_c'
p2009
(dp2010
S'maximum_status'
p2011
g12
sg5
F2.5362023996340572
ssS'TMS_kdo_c'
p2012
(dp2013
S'maximum_status'
p2014
g4
sg5
NssS'TMS_24dhhed_c'
p2015
(dp2016
S'maximum_status'
p2017
g12
sg5
F2.5362023996340572
ssS'TMS_hg2_c'
p2018
(dp2019
S'maximum_status'
p2020
g12
sg5
F2.5362023996266707
ssS'TMS_acser_p'
p2021
(dp2022
S'maximum_status'
p2023
g12
sg5
F2.5362023996340572
ssS'TMS_dhnpt_c'
p2024
(dp2025
S'maximum_status'
p2026
g4
sg5
NssS'TMS_ichor_c'
p2027
(dp2028
S'maximum_status'
p2029
g12
sg5
F2.5362023996340572
ssS'TMS_ppap_c'
p2030
(dp2031
S'maximum_status'
p2032
g12
sg5
F2.536202399626668
ssS'TMS_gmhep7p_c'
p2033
(dp2034
S'maximum_status'
p2035
g4
sg5
NssS'TMS_gthrd_c'
p2036
(dp2037
S'maximum_status'
p2038
g12
sg5
F2.536202399626661
ssS'TMS_1agpe160_p'
p2039
(dp2040
S'maximum_status'
p2041
g12
sg5
F2.5362023996340572
ssS'TMS_pran_c'
p2042
(dp2043
S'maximum_status'
p2044
g12
sg5
F2.5362023996340533
ssS'TMS_glyc__R_c'
p2045
(dp2046
S'maximum_status'
p2047
g22
sg5
NssS'TMS_gua_c'
p2048
(dp2049
S'maximum_status'
p2050
g12
sg5
F2.5362023996266654
ssS'TMS_cd2_p'
p2051
(dp2052
S'maximum_status'
p2053
g12
sg5
F2.5362023996340572
ssS'TMS_gua_p'
p2054
(dp2055
S'maximum_status'
p2056
g12
sg5
F2.536202399626654
ssS'TMS_gdpddman_c'
p2057
(dp2058
S'maximum_status'
p2059
g12
sg5
F2.536202399626654
ssS'TMS_cd2_c'
p2060
(dp2061
S'maximum_status'
p2062
g12
sg5
F2.5362023996340572
ssS'TMS_2me4p_c'
p2063
(dp2064
S'maximum_status'
p2065
g12
sg5
F2.5362023996340572
ssS'TMS_uri_c'
p2066
(dp2067
S'maximum_status'
p2068
g4
sg5
NssS'TMS_fe3dhbzs_c'
p2069
(dp2070
S'maximum_status'
p2071
g12
sg5
F2.5362023996340572
ssS'TMS_2agpg180_p'
p2072
(dp2073
S'maximum_status'
p2074
g12
sg5
F2.5362023996340572
ssS'TMS_galt_p'
p2075
(dp2076
S'maximum_status'
p2077
g12
sg5
F2.5362023996266725
ssS'TMS_uri_p'
p2078
(dp2079
S'maximum_status'
p2080
g4
sg5
NssS'TMS_2agpg180_c'
p2081
(dp2082
S'maximum_status'
p2083
g12
sg5
F2.5362023996340572
ssS'TMS_nflgln_c'
p2084
(dp2085
S'maximum_status'
p2086
g4
sg5
NssS'TMS_pgp181_p'
p2087
(dp2088
S'maximum_status'
p2089
g12
sg5
F2.5362023996340572
ssS'TMS_pram_c'
p2090
(dp2091
S'maximum_status'
p2092
g12
sg5
F2.5362023996340644
ssS'TMS_2agpe160_p'
p2093
(dp2094
S'maximum_status'
p2095
g12
sg5
F2.5362023996340572
ssS'TMS_pgp181_c'
p2096
(dp2097
S'maximum_status'
p2098
g4
sg5
NssS'TMS_dmlz_c'
p2099
(dp2100
S'maximum_status'
p2101
g4
sg5
NssS'TMS_2agpe160_c'
p2102
(dp2103
S'maximum_status'
p2104
g12
sg5
F2.5362023996340577
ssS'TMS_ps180_c'
p2105
(dp2106
S'maximum_status'
p2107
g4
sg5
NssS'TMS_13dpg_c'
p2108
(dp2109
S'maximum_status'
p2110
g4
sg5
NssS'TMS_dkmpp_c'
p2111
(dp2112
S'maximum_status'
p2113
g4
sg5
NssS'TMS_ura_c'
p2114
(dp2115
S'maximum_status'
p2116
g22
sg5
NssS'TMS_salchsx_p'
p2117
(dp2118
S'maximum_status'
p2119
g12
sg5
F2.5362023996340572
ssS'TMS_crn_p'
p2120
(dp2121
S'maximum_status'
p2122
g12
sg5
F2.5362023996340572
ssS'TMS_uacmamu_c'
p2123
(dp2124
S'maximum_status'
p2125
g12
sg5
F2.536202399626664
ssS'TMS_crn_c'
p2126
(dp2127
S'maximum_status'
p2128
g12
sg5
F2.5362023996340572
ssS'TMS_salchsx_c'
p2129
(dp2130
S'maximum_status'
p2131
g12
sg5
F2.5362023996340572
ssS'TMS_ura_p'
p2132
(dp2133
S'maximum_status'
p2134
g12
sg5
F2.5362023996340572
ssS'TMS_hom__L_p'
p2135
(dp2136
S'maximum_status'
p2137
g12
sg5
F2.5362023985134527
ssS'TMS_apg181_c'
p2138
(dp2139
S'maximum_status'
p2140
g12
sg5
F2.5362023996340572
ssS'TMS_fe2_p'
p2141
(dp2142
S'maximum_status'
p2143
g12
sg5
F2.5357597206316362
ssS'TMS_hom__L_c'
p2144
(dp2145
S'maximum_status'
p2146
g22
sg5
NssS'TMS_fe2_c'
p2147
(dp2148
S'maximum_status'
p2149
g4
sg5
NssS'TMS_cdp4dh36ddglc_c'
p2150
(dp2151
S'maximum_status'
p2152
g4
sg5
NssS'TMS_thymd_c'
p2153
(dp2154
S'maximum_status'
p2155
g4
sg5
NssS'TMS_uaagmda_c'
p2156
(dp2157
S'maximum_status'
p2158
g4
sg5
NssS'TMS_thymd_p'
p2159
(dp2160
S'maximum_status'
p2161
g4
sg5
NssS'TMS_murein4p3p_p'
p2162
(dp2163
S'maximum_status'
p2164
g12
sg5
F2.5362023996340533
ssS'TMS_ahdt_c'
p2165
(dp2166
S'maximum_status'
p2167
g4
sg5
NssS'TMS_trnaser_c'
p2168
(dp2169
S'maximum_status'
p2170
g12
sg5
F2.5362023996340555
ssS'TMS_4per_c'
p2171
(dp2172
S'maximum_status'
p2173
g12
sg5
F2.5362023996340572
ssS'TMS_ppal_p'
p2174
(dp2175
S'maximum_status'
p2176
g12
sg5
F2.5362023996340572
ssS'TMS_ile__L_p'
p2177
(dp2178
S'maximum_status'
p2179
g12
sg5
F2.5320181854025128
ssS'TMS_acetol_c'
p2180
(dp2181
S'maximum_status'
p2182
g12
sg5
F2.5362023996340572
ssS'TMS_ppal_c'
p2183
(dp2184
S'maximum_status'
p2185
g12
sg5
F2.5362023996340572
ssS'TMS_cpg160_c'
p2186
(dp2187
S'maximum_status'
p2188
g12
sg5
F2.5362023996266645
ssS'TMS_malACP_c'
p2189
(dp2190
S'maximum_status'
p2191
g4
sg5
NssS'TMS_fdp_c'
p2192
(dp2193
S'maximum_status'
p2194
g4
sg5
NssS'TMS_msa_c'
p2195
(dp2196
S'maximum_status'
p2197
g12
sg5
F2.5362023996340572
ssS'TMS_pe141_c'
p2198
(dp2199
S'maximum_status'
p2200
g12
sg5
F2.536202399634061
ssS'TMS_4hoxpacd_p'
p2201
(dp2202
S'maximum_status'
p2203
g12
sg5
F2.5362023996340572
ssS'TMS_murein5px3p_p'
p2204
(dp2205
S'maximum_status'
p2206
g12
sg5
F2.536202399634069
ssS'TMS_pe141_p'
p2207
(dp2208
S'maximum_status'
p2209
g12
sg5
F2.5362023996340533
ssS'TMS_galt1p_c'
p2210
(dp2211
S'maximum_status'
p2212
g12
sg5
F2.5362023996266796
ssS'TMS_dadp_c'
p2213
(dp2214
S'maximum_status'
p2215
g12
sg5
F2.536202399626663
ssS'TMS_arbtn__fe3_c'
p2216
(dp2217
S'maximum_status'
p2218
g12
sg5
F2.5362023996340675
ssS'TMS_2agpe141_p'
p2219
(dp2220
S'maximum_status'
p2221
g12
sg5
F2.5362023996340572
ssS'TMS_air_c'
p2222
(dp2223
S'maximum_status'
p2224
g12
sg5
F2.5362023996340572
ssS'TMS_arbtn__fe3_p'
p2225
(dp2226
S'maximum_status'
p2227
g12
sg5
F2.5362023996340675
ssS'TMS_so4_c'
p2228
(dp2229
S'maximum_status'
p2230
g4
sg5
NssS'TMS_pdx5p_c'
p2231
(dp2232
S'maximum_status'
p2233
g12
sg5
F2.5362023996340572
ssS'TMS_23ddhb_c'
p2234
(dp2235
S'maximum_status'
p2236
g12
sg5
F2.5362023996340572
ssS'TMS_frdp_c'
p2237
(dp2238
S'maximum_status'
p2239
g12
sg5
F2.5362023996340572
ssS'TMS_so4_p'
p2240
(dp2241
S'maximum_status'
p2242
g4
sg5
NssS'TMS_ascb6p_c'
p2243
(dp2244
S'maximum_status'
p2245
g12
sg5
F2.5362023996340572
ssS'TMS_3c4mop_c'
p2246
(dp2247
S'maximum_status'
p2248
g12
sg5
F2.5362023996340577
ssS'TMS_zn2_p'
p2249
(dp2250
S'maximum_status'
p2251
g4
sg5
NssS'TMS_so2_p'
p2252
(dp2253
S'maximum_status'
p2254
g12
sg5
F2.5362023996340572
ssS'TMS_succ_p'
p2255
(dp2256
S'maximum_status'
p2257
g12
sg5
F2.536202399634072
ssS'TMS_f6p_p'
p2258
(dp2259
S'maximum_status'
p2260
g12
sg5
F2.5362023996340675
ssS'TMS_so2_c'
p2261
(dp2262
S'maximum_status'
p2263
g12
sg5
F2.5362023996340572
ssS'TMS_clpn2_ST_p'
p2264
(dp2265
S'maximum_status'
p2266
g4
sg5
NssS'TMS_23dhbzs_c'
p2267
(dp2268
S'maximum_status'
p2269
g12
sg5
F2.5362023996340572
ssS'TMS_anhm3p_c'
p2270
(dp2271
S'maximum_status'
p2272
g12
sg5
F2.5362023996340533
ssS'TMS_uacmam_c'
p2273
(dp2274
S'maximum_status'
p2275
g12
sg5
F2.5362023996340572
ssS'TMS_ptrc_c'
p2276
(dp2277
S'maximum_status'
p2278
g22
sg5
NssS'TMS_sucorn_c'
p2279
(dp2280
S'maximum_status'
p2281
g12
sg5
F2.5362023996340572
ssS'TMS_gly_c'
p2282
(dp2283
S'maximum_status'
p2284
g22
sg5
NssS'TMS_ptrc_p'
p2285
(dp2286
S'maximum_status'
p2287
g4
sg5
NssS'TMS_gly_p'
p2288
(dp2289
S'maximum_status'
p2290
g12
sg5
F2.533166096893325
ssS'TMS_tungs_c'
p2291
(dp2292
S'maximum_status'
p2293
g12
sg5
F2.5362023996266645
ssS'TMS_ssaltpp_c'
p2294
(dp2295
S'maximum_status'
p2296
g12
sg5
F2.536202399634061
ssS'TMS_lac__D_p'
p2297
(dp2298
S'maximum_status'
p2299
g12
sg5
F2.5362023996266805
ssS'TMS_glc__D_c'
p2300
(dp2301
S'maximum_status'
p2302
g22
sg5
NssS'TMS_2h3oppan_c'
p2303
(dp2304
S'maximum_status'
p2305
g12
sg5
F2.53620239852078
ssS'TMS_g1p_c'
p2306
(dp2307
S'maximum_status'
p2308
g4
sg5
NssS'TMS_glc__D_p'
p2309
(dp2310
S'maximum_status'
p2311
g4
sg5
NssS'TMS_lac__D_c'
p2312
(dp2313
S'maximum_status'
p2314
g12
sg5
F2.5362023996340732
ssS'TMS_3odcoa_c'
p2315
(dp2316
S'maximum_status'
p2317
g12
sg5
F2.536202399634065
ssS'TMS_2dhp_c'
p2318
(dp2319
S'maximum_status'
p2320
g4
sg5
NssS'TMS_selnp_c'
p2321
(dp2322
S'maximum_status'
p2323
g12
sg5
F2.5362023996340572
ssS'TMS_histrna_c'
p2324
(dp2325
S'maximum_status'
p2326
g12
sg5
F2.5362023996266645
ssS'TMS_cobalt2_p'
p2327
(dp2328
S'maximum_status'
p2329
g4
sg5
NssS'TMS_dimp_c'
p2330
(dp2331
S'maximum_status'
p2332
g12
sg5
F2.5362023996340572
ssS'TMS_5dglcn_p'
p2333
(dp2334
S'maximum_status'
p2335
g12
sg5
F2.5362023996340572
ssS'TMS_grdp_c'
p2336
(dp2337
S'maximum_status'
p2338
g12
sg5
F2.5362023996340572
ssS'TMS_murein5p4p_p'
p2339
(dp2340
S'maximum_status'
p2341
g12
sg5
F2.5362023996340572
ssS'TMS_cobalt2_c'
p2342
(dp2343
S'maximum_status'
p2344
g4
sg5
NssS'TMS_5dglcn_c'
p2345
(dp2346
S'maximum_status'
p2347
g12
sg5
F2.5362023996266703
ssS'TMS_dimp_p'
p2348
(dp2349
S'maximum_status'
p2350
g12
sg5
F2.5362023996266703
ssS'TMS_tym_p'
p2351
(dp2352
S'maximum_status'
p2353
g12
sg5
F2.5362023996340572
ssS'TMS_g1p_p'
p2354
(dp2355
S'maximum_status'
p2356
g12
sg5
F2.5362023996340572
ssS'TMS_cyst__L_c'
p2357
(dp2358
S'maximum_status'
p2359
g12
sg5
F2.5362023996340572
ssS'TMS_ppcoa_c'
p2360
(dp2361
S'maximum_status'
p2362
g12
sg5
F2.5362023996340746
ssS'TMS_diglyceride_prolpp_c'
p2363
(dp2364
S'maximum_status'
p2365
g12
sg5
F2.5362023996340572
ssS'TMS_dgdp_c'
p2366
(dp2367
S'maximum_status'
p2368
g12
sg5
F2.53620239962665
ssS'TMS_cytd_p'
p2369
(dp2370
S'maximum_status'
p2371
g12
sg5
F2.5362023996266743
ssS'TMS_udcdp11Oag_p'
p2372
(dp2373
S'maximum_status'
p2374
g12
sg5
F2.5362023996340572
ssS'TMS_3hcmrs7eACP_c'
p2375
(dp2376
S'maximum_status'
p2377
g4
sg5
NssS'TMS_4adcho_c'
p2378
(dp2379
S'maximum_status'
p2380
g4
sg5
NssS'TMS_udcdp2Oag_p'
p2381
(dp2382
S'maximum_status'
p2383
g12
sg5
F2.5362023996340572
ssS'TMS_cytd_c'
p2384
(dp2385
S'maximum_status'
p2386
g12
sg5
F2.536202399626654
ssS'TMS_pppn_c'
p2387
(dp2388
S'maximum_status'
p2389
g12
sg5
F2.5362023996340572
ssS'TMS_pppn_p'
p2390
(dp2391
S'maximum_status'
p2392
g12
sg5
F2.5362023996340572
ssS'TMS_g3pg_p'
p2393
(dp2394
S'maximum_status'
p2395
g12
sg5
F2.536202399626655
ssS'TMS_14glucan_p'
p2396
(dp2397
S'maximum_status'
p2398
g12
sg5
F2.536202399626662
ssS'TMS_dtdp4addg_c'
p2399
(dp2400
S'maximum_status'
p2401
g12
sg5
F2.5362023996266547
ssS'TMS_ala__B_c'
p2402
(dp2403
S'maximum_status'
p2404
g22
sg5
NssS'TMS_met__D_p'
p2405
(dp2406
S'maximum_status'
p2407
g12
sg5
F2.536202399626673
ssS'TMS_udpacgal_p'
p2408
(dp2409
S'maximum_status'
p2410
g12
sg5
F2.5362023996340572
ssS'TMS_14glucan_c'
p2411
(dp2412
S'maximum_status'
p2413
g12
sg5
F2.536202399626654
ssS'TMS_icolipa_c'
p2414
(dp2415
S'maximum_status'
p2416
g4
sg5
NssS'TMS_g3pg_c'
p2417
(dp2418
S'maximum_status'
p2419
g12
sg5
F2.536202399626656
ssS'TMS_met__D_c'
p2420
(dp2421
S'maximum_status'
p2422
g12
sg5
F2.5362023996266667
ssS'TMS_ala__B_p'
p2423
(dp2424
S'maximum_status'
p2425
g12
sg5
F2.5362023996340572
ssS'TMS_salchs1_c'
p2426
(dp2427
S'maximum_status'
p2428
g12
sg5
F2.5362023996340572
ssS'TMS_ala__D_p'
p2429
(dp2430
S'maximum_status'
p2431
g12
sg5
F2.5362023996340515
ssS'TMS_pg120_p'
p2432
(dp2433
S'maximum_status'
p2434
g12
sg5
F2.536202399626661
ssS'TMS_gmhep1p_c'
p2435
(dp2436
S'maximum_status'
p2437
g4
sg5
NssS'TMS_ala__D_c'
p2438
(dp2439
S'maximum_status'
p2440
g4
sg5
NssS'TMS_pg120_c'
p2441
(dp2442
S'maximum_status'
p2443
g12
sg5
F2.5362023996340572
ssS'TMS_5aizc_c'
p2444
(dp2445
S'maximum_status'
p2446
g12
sg5
F2.5362023996340572
ssS'TMS_airs_c'
p2447
(dp2448
S'maximum_status'
p2449
g12
sg5
F2.5362023996340572
ssS'TMS_airs_p'
p2450
(dp2451
S'maximum_status'
p2452
g12
sg5
F2.5362023996340572
ssS'TMS_ara5p_c'
p2453
(dp2454
S'maximum_status'
p2455
g4
sg5
NssS'TMS_3gmp_p'
p2456
(dp2457
S'maximum_status'
p2458
g12
sg5
F2.5362023996340572
ssS'TMS_pant__R_c'
p2459
(dp2460
S'maximum_status'
p2461
g4
sg5
NssS'TMS_23ccmp_p'
p2462
(dp2463
S'maximum_status'
p2464
g12
sg5
F2.5362023996340572
ssS'TMS_23doguln_c'
p2465
(dp2466
S'maximum_status'
p2467
g12
sg5
F2.5362023996266645
ssS'TMS_chitob_p'
p2468
(dp2469
S'maximum_status'
p2470
g12
sg5
F2.5362023996340572
ssS'TMS_3omrsACP_c'
p2471
(dp2472
S'maximum_status'
p2473
g4
sg5
NssS'TMS_pppi_c'
p2474
(dp2475
S'maximum_status'
p2476
g12
sg5
F2.536202399626674
ssS'TMS_3hcinnm_p'
p2477
(dp2478
S'maximum_status'
p2479
g12
sg5
F2.5362023996340572
ssS'TMS_cdp_c'
p2480
(dp2481
S'maximum_status'
p2482
g4
sg5
NssS'TMS_sucr_p'
p2483
(dp2484
S'maximum_status'
p2485
g12
sg5
F2.5362023996340572
ssS'TMS_clpn180_p'
p2486
(dp2487
S'maximum_status'
p2488
g4
sg5
NssS'TMS_OA_ST_p'
p2489
(dp2490
S'maximum_status'
p2491
g4
sg5
NssS'TMS_2ddglcn_p'
p2492
(dp2493
S'maximum_status'
p2494
g12
sg5
F2.5362023996340572
ssS'TMS_glyceryl_prolpp_c'
p2495
(dp2496
S'maximum_status'
p2497
g12
sg5
F2.5362023996340572
ssS'TMS_glyb_c'
p2498
(dp2499
S'maximum_status'
p2500
g12
sg5
F2.5362023996266596
ssS'TMS_2ddglcn_c'
p2501
(dp2502
S'maximum_status'
p2503
g12
sg5
F2.5362023996340635
ssS'TMS_glyb_p'
p2504
(dp2505
S'maximum_status'
p2506
g12
sg5
F2.5362023996266676
ssS'TMS_mana_c'
p2507
(dp2508
S'maximum_status'
p2509
g12
sg5
F2.536202399626655
ssS'TMS_pg2_ST_p'
p2510
(dp2511
S'maximum_status'
p2512
g4
sg5
NssS'TMS_LalaDgluMdap_p'
p2513
(dp2514
S'maximum_status'
p2515
g12
sg5
F2.5362023996340515
ssS'TMS_dmso_p'
p2516
(dp2517
S'maximum_status'
p2518
g12
sg5
F2.5362023996340572
ssS'TMS_LalaDgluMdap_c'
p2519
(dp2520
S'maximum_status'
p2521
g12
sg5
F2.536202399626655
ssS'TMS_g3pe_c'
p2522
(dp2523
S'maximum_status'
p2524
g12
sg5
F2.536202399626669
ssS'TMS_asptrna_c'
p2525
(dp2526
S'maximum_status'
p2527
g12
sg5
F2.5362023996266654
ssS'TMS_dpcoa_c'
p2528
(dp2529
S'maximum_status'
p2530
g4
sg5
NssS'TMS_udcpgrm_c'
p2531
(dp2532
S'maximum_status'
p2533
g4
sg5
NssS'TMS_23camp_p'
p2534
(dp2535
S'maximum_status'
p2536
g12
sg5
F2.536202399626674
ssS'TMS_uacgam_c'
p2537
(dp2538
S'maximum_status'
p2539
g4
sg5
NssS'TMS_tdec2eACP_c'
p2540
(dp2541
S'maximum_status'
p2542
g4
sg5
NssS'TMS_g3pe_p'
p2543
(dp2544
S'maximum_status'
p2545
g12
sg5
F2.536202399626678
ssS'TMS_ppt_p'
p2546
(dp2547
S'maximum_status'
p2548
g12
sg5
F2.5362023996340572
ssS'TMS_23dappa_c'
p2549
(dp2550
S'maximum_status'
p2551
g12
sg5
F2.5362023996340572
ssS'TMS_aps_c'
p2552
(dp2553
S'maximum_status'
p2554
g4
sg5
NssS'TMS_ppp9_c'
p2555
(dp2556
S'maximum_status'
p2557
g12
sg5
F2.5362023996340572
ssS'TMS_orot5p_c'
p2558
(dp2559
S'maximum_status'
p2560
g12
sg5
F2.5362023996266654
ssS'TMS_codscl3_c'
p2561
(dp2562
S'maximum_status'
p2563
g12
sg5
F2.5362023996340572
ssS'TMS_codscl7_c'
p2564
(dp2565
S'maximum_status'
p2566
g12
sg5
F2.5362023996266596
ssS'TMS_salchs4_c'
p2567
(dp2568
S'maximum_status'
p2569
g12
sg5
F2.5362023996266725
ssS'TMS_Pald_c'
p2570
(dp2571
S'maximum_status'
p2572
g12
sg5
F2.5362023996340572
ssS'TMS_td2coa_c'
p2573
(dp2574
S'maximum_status'
p2575
g12
sg5
F2.536202399634052
ssS'TMS_salchs4_p'
p2576
(dp2577
S'maximum_status'
p2578
g12
sg5
F2.536202399626663
ssS'TMS_3hoctACP_c'
p2579
(dp2580
S'maximum_status'
p2581
g4
sg5
NssS'TMS_dhptd_c'
p2582
(dp2583
S'maximum_status'
p2584
g4
sg5
NssS'TMS_4h2kpi_c'
p2585
(dp2586
S'maximum_status'
p2587
g12
sg5
F2.5362023996340572
ssS'TMS_gicolipa_c'
p2588
(dp2589
S'maximum_status'
p2590
g4
sg5
NssS'TMS_acmana_p'
p2591
(dp2592
S'maximum_status'
p2593
g12
sg5
F2.5362023996340572
ssS'TMS_but2eACP_c'
p2594
(dp2595
S'maximum_status'
p2596
g4
sg5
NssS'TMS_gdpmann_c'
p2597
(dp2598
S'maximum_status'
p2599
g4
sg5
NssS'TMS_acmana_c'
p2600
(dp2601
S'maximum_status'
p2602
g12
sg5
F2.5362023996340533
ssS'TMS_fmn_c'
p2603
(dp2604
S'maximum_status'
p2605
g4
sg5
NssS'TMS_udcdp17Oag_p'
p2606
(dp2607
S'maximum_status'
p2608
g12
sg5
F2.5362023996340572
ssS'TMS_ser__D_p'
p2609
(dp2610
S'maximum_status'
p2611
g12
sg5
F2.5362023996340572
ssS'TMS_12ppd__R_c'
p2612
(dp2613
S'maximum_status'
p2614
g12
sg5
F2.5362023996266587
ssS'TMS_udcdpgal_c'
p2615
(dp2616
S'maximum_status'
p2617
g12
sg5
F2.536202399633245
ssS'TMS_ser__D_c'
p2618
(dp2619
S'maximum_status'
p2620
g12
sg5
F2.5362023996266703
ssS'TMS_12ppd__R_p'
p2621
(dp2622
S'maximum_status'
p2623
g12
sg5
F2.5362023996266654
ssS'TMS_tungs_p'
p2624
(dp2625
S'maximum_status'
p2626
g12
sg5
F2.5362023996340572
ssS'TMS_glycogen_c'
p2627
(dp2628
S'maximum_status'
p2629
g22
sg5
NssS'TMS_hqn_c'
p2630
(dp2631
S'maximum_status'
p2632
g12
sg5
F2.5362023996266654
ssS'TMS_3odecACP_c'
p2633
(dp2634
S'maximum_status'
p2635
g4
sg5
NssS'TMS_ppa_p'
p2636
(dp2637
S'maximum_status'
p2638
g12
sg5
F2.5362023996340572
ssS'TMS_dtdp_c'
p2639
(dp2640
S'maximum_status'
p2641
g4
sg5
NssS'TMS_salchs4fe_p'
p2642
(dp2643
S'maximum_status'
p2644
g12
sg5
F2.5362023996340572
ssS'TMS_5mdr1p_c'
p2645
(dp2646
S'maximum_status'
p2647
g4
sg5
NssS'TMS_pg160_c'
p2648
(dp2649
S'maximum_status'
p2650
g12
sg5
F2.5360448869628534
ssS'TMS_ppa_c'
p2651
(dp2652
S'maximum_status'
p2653
g12
sg5
F2.5362023996266756
ssS'TMS_salchs4fe_c'
p2654
(dp2655
S'maximum_status'
p2656
g12
sg5
F2.5362023996340572
ssS'TMS_pg160_p'
p2657
(dp2658
S'maximum_status'
p2659
g4
sg5
NssS'TMS_2dmmq8_c'
p2660
(dp2661
S'maximum_status'
p2662
g12
sg5
F2.5362023996340444
ssS'TMS_glu5p_c'
p2663
(dp2664
S'maximum_status'
p2665
g12
sg5
F2.5362023996340572
ssS'TMS_tag1p__D_c'
p2666
(dp2667
S'maximum_status'
p2668
g12
sg5
F2.5362023996340572
ssS'TMS_indole_c'
p2669
(dp2670
S'maximum_status'
p2671
g12
sg5
F2.5362023996340537
ssS'TMS_4abut_p'
p2672
(dp2673
S'maximum_status'
p2674
g12
sg5
F2.5362023996340572
ssS'TMS_indole_p'
p2675
(dp2676
S'maximum_status'
p2677
g12
sg5
F2.536202399626673
ssS'TMS_trnatyr_c'
p2678
(dp2679
S'maximum_status'
p2680
g12
sg5
F2.5362023996340555
ssS'TMS_4abut_c'
p2681
(dp2682
S'maximum_status'
p2683
g12
sg5
F2.5362023996340572
ssS'TMS_adpglc_c'
p2684
(dp2685
S'maximum_status'
p2686
g4
sg5
NssS'TMS_dgsn_p'
p2687
(dp2688
S'maximum_status'
p2689
g12
sg5
F2.5362023996340577
ssS'TMS_butACP_c'
p2690
(dp2691
S'maximum_status'
p2692
g4
sg5
NssS'TMS_dgsn_c'
p2693
(dp2694
S'maximum_status'
p2695
g12
sg5
F2.5362023996266556
ssS'TMS_dgtp_c'
p2696
(dp2697
S'maximum_status'
p2698
g4
sg5
NssS'TMS_sucglu_c'
p2699
(dp2700
S'maximum_status'
p2701
g12
sg5
F2.5362023996340572
ssS'TMS_man_p'
p2702
(dp2703
S'maximum_status'
p2704
g12
sg5
F2.5362023996340572
ssS'TMS_dsbaox_p'
p2705
(dp2706
S'maximum_status'
p2707
g12
sg5
F2.53620239963408
ssS'TMS_pe181_c'
p2708
(dp2709
S'maximum_status'
p2710
g4
sg5
NssS'TMS_man_c'
p2711
(dp2712
S'maximum_status'
p2713
g12
sg5
F2.5362023996340572
ssS'TMS_pe181_p'
p2714
(dp2715
S'maximum_status'
p2716
g4
sg5
NssS'TMS_skm_p'
p2717
(dp2718
S'maximum_status'
p2719
g12
sg5
F2.5362023996340572
ssS'TMS_codscl5a_c'
p2720
(dp2721
S'maximum_status'
p2722
g12
sg5
F2.5362023996340572
ssS'TMS_trnaphe_c'
p2723
(dp2724
S'maximum_status'
p2725
g12
sg5
F2.5362023996266654
ssS'TMS_hmbil_c'
p2726
(dp2727
S'maximum_status'
p2728
g4
sg5
NssS'TMS_leu__L_c'
p2729
(dp2730
S'maximum_status'
p2731
g22
sg5
NssS'TMS_6pgc_c'
p2732
(dp2733
S'maximum_status'
p2734
g12
sg5
F2.536202399626654
ssS'TMS_uppg3_c'
p2735
(dp2736
S'maximum_status'
p2737
g4
sg5
NssS'TMS_kdolipid4_c'
p2738
(dp2739
S'maximum_status'
p2740
g4
sg5
NssS'TMS_leu__L_p'
p2741
(dp2742
S'maximum_status'
p2743
g4
sg5
NssS'TMS_udcdpgalrmnman_c'
p2744
(dp2745
S'maximum_status'
p2746
g12
sg5
F2.5362023996266703
ssS'TMS_3cmp_p'
p2747
(dp2748
S'maximum_status'
p2749
g12
sg5
F2.536202399634068
ssS'TMS_crn__D_c'
p2750
(dp2751
S'maximum_status'
p2752
g12
sg5
F2.5362023996340572
ssS'TMS_enlipa_p'
p2753
(dp2754
S'maximum_status'
p2755
g12
sg5
F2.5362023996340572
ssS'TMS_3hcpalm9eACP_c'
p2756
(dp2757
S'maximum_status'
p2758
g4
sg5
NssS'TMS_cu_c'
p2759
(dp2760
S'maximum_status'
p2761
g12
sg5
F2.5362023996266654
ssS'TMS_xu5p__D_c'
p2762
(dp2763
S'maximum_status'
p2764
g4
sg5
NssS'TMS_skm_c'
p2765
(dp2766
S'maximum_status'
p2767
g4
sg5
NssS'TMS_2agpg141_c'
p2768
(dp2769
S'maximum_status'
p2770
g12
sg5
F2.5362023996340572
ssS'TMS_gdp_p'
p2771
(dp2772
S'maximum_status'
p2773
g12
sg5
F2.5362023996340572
ssS'TMS_chit6p_c'
p2774
(dp2775
S'maximum_status'
p2776
g12
sg5
F2.536202399626661
ssS'TMS_kdo2lipid4_c'
p2777
(dp2778
S'maximum_status'
p2779
g4
sg5
NssS'TMS_2agpg141_p'
p2780
(dp2781
S'maximum_status'
p2782
g12
sg5
F2.5362023996340572
ssS'TMS_gdp_c'
p2783
(dp2784
S'maximum_status'
p2785
g4
sg5
NssS'TMS_ggagicolipa_c'
p2786
(dp2787
S'maximum_status'
p2788
g4
sg5
NssS'TMS_kdo2lipid4_p'
p2789
(dp2790
S'maximum_status'
p2791
g12
sg5
F2.5362023996340572
ssS'TMS_12ppd__S_p'
p2792
(dp2793
S'maximum_status'
p2794
g12
sg5
F2.5362023996340572
ssS'TMS_5mdru1p_c'
p2795
(dp2796
S'maximum_status'
p2797
g4
sg5
NssS'TMS_mnl_p'
p2798
(dp2799
S'maximum_status'
p2800
g12
sg5
F2.5362023996340572
ssS'TMS_12ppd__S_c'
p2801
(dp2802
S'maximum_status'
p2803
g12
sg5
F2.5362023996340515
ssS'TMS_toct2eACP_c'
p2804
(dp2805
S'maximum_status'
p2806
g4
sg5
NssS'TMS_clpn141_p'
p2807
(dp2808
S'maximum_status'
p2809
g12
sg5
F2.5362023996340644
ssS'TMS_cystrna_c'
p2810
(dp2811
S'maximum_status'
p2812
g12
sg5
F2.5362023996266645
ssS'TMS_tyr__L_p'
p2813
(dp2814
S'maximum_status'
p2815
g4
sg5
NssS'TMS_suchms_c'
p2816
(dp2817
S'maximum_status'
p2818
g12
sg5
F2.536202399626664
ssS'TMS_acorn_c'
p2819
(dp2820
S'maximum_status'
p2821
g12
sg5
F2.5362023996340666
ssS'TMS_6hmhptpp_c'
p2822
(dp2823
S'maximum_status'
p2824
g4
sg5
NssS'TMS_cl_p'
p2825
(dp2826
S'maximum_status'
p2827
g4
sg5
NssS'TMS_tyr__L_c'
p2828
(dp2829
S'maximum_status'
p2830
g22
sg5
NssS'TMS_palmACP_c'
p2831
(dp2832
S'maximum_status'
p2833
g4
sg5
NssS'TMS_cl_c'
p2834
(dp2835
S'maximum_status'
p2836
g4
sg5
NssS'TMS_1agpg141_p'
p2837
(dp2838
S'maximum_status'
p2839
g12
sg5
F2.536202399626656
ssS'TMS_malt6p_c'
p2840
(dp2841
S'maximum_status'
p2842
g12
sg5
F2.5362023996266645
ssS'TMS_pnto__R_p'
p2843
(dp2844
S'maximum_status'
p2845
g12
sg5
F2.5361943979236052
ssS'TMS_ttdcea_c'
p2846
(dp2847
S'maximum_status'
p2848
g12
sg5
F2.5362023996340572
ssS'TMS_pnto__R_c'
p2849
(dp2850
S'maximum_status'
p2851
g22
sg5
NssS'TMS_phom_c'
p2852
(dp2853
S'maximum_status'
p2854
g12
sg5
F2.5362023996340572
ssS'TMS_ttdcea_p'
p2855
(dp2856
S'maximum_status'
p2857
g12
sg5
F2.5362023996340644
ssS'TMS_dc2coa_c'
p2858
(dp2859
S'maximum_status'
p2860
g12
sg5
F2.5362023996266587
ssS'TMS_thex2eACP_c'
p2861
(dp2862
S'maximum_status'
p2863
g4
sg5
NssS'TMS_cdpabeq_c'
p2864
(dp2865
S'maximum_status'
p2866
g4
sg5
NssS'TMS_pmtcoa_c'
p2867
(dp2868
S'maximum_status'
p2869
g12
sg5
F2.5362023996266596
ssS'TMS_fruur_c'
p2870
(dp2871
S'maximum_status'
p2872
g12
sg5
F2.5362023996340572
ssS'TMS_pa141_c'
p2873
(dp2874
S'maximum_status'
p2875
g12
sg5
F2.536202399626669
ssS'TMS_dnad_c'
p2876
(dp2877
S'maximum_status'
p2878
g4
sg5
NssS'TMS_pa141_p'
p2879
(dp2880
S'maximum_status'
p2881
g12
sg5
F2.536202399634056
ssS'TMS_3ooctACP_c'
p2882
(dp2883
S'maximum_status'
p2884
g4
sg5
NssS'TMS_mn2_p'
p2885
(dp2886
S'maximum_status'
p2887
g4
sg5
NssS'TMS_4hthr_c'
p2888
(dp2889
S'maximum_status'
p2890
g12
sg5
F2.5362023996340572
ssS'TMS_idon__L_p'
p2891
(dp2892
S'maximum_status'
p2893
g12
sg5
F2.5362023996340533
ssS'TMS_2dr1p_c'
p2894
(dp2895
S'maximum_status'
p2896
g4
sg5
NssS'TMS_fmettrna_c'
p2897
(dp2898
S'maximum_status'
p2899
g12
sg5
F2.5362023996266645
ssS'TMS_23dhmp_c'
p2900
(dp2901
S'maximum_status'
p2902
g12
sg5
F2.536202399626654
ssS'TMS_idon__L_c'
p2903
(dp2904
S'maximum_status'
p2905
g12
sg5
F2.5362023996340533
ssS'TMS_4hthr_p'
p2906
(dp2907
S'maximum_status'
p2908
g12
sg5
F2.5362023996340572
ssS'TMS_mn2_c'
p2909
(dp2910
S'maximum_status'
p2911
g4
sg5
NssS'TMS_2ommbl_c'
p2912
(dp2913
S'maximum_status'
p2914
g12
sg5
F2.5362023996340572
ssS'TMS_2mcit_c'
p2915
(dp2916
S'maximum_status'
p2917
g12
sg5
F2.536202399626656
ssS'TMS_3otdcoa_c'
p2918
(dp2919
S'maximum_status'
p2920
g12
sg5
F2.5362023996340572
ssS'TMS_metsox__R__L_p'
p2921
(dp2922
S'maximum_status'
p2923
g12
sg5
F2.5362023996340572
ssS'TMS_trnamet_c'
p2924
(dp2925
S'maximum_status'
p2926
g12
sg5
F2.5362023996266654
ssS'TMS_feroxBfe_c'
p2927
(dp2928
S'maximum_status'
p2929
g12
sg5
F2.5362023996340572
ssS'TMS_gthrd_p'
p2930
(dp2931
S'maximum_status'
p2932
g12
sg5
F2.5362023996340533
ssS'TMS_pa181_p'
p2933
(dp2934
S'maximum_status'
p2935
g4
sg5
NssS'TMS_db4p_c'
p2936
(dp2937
S'maximum_status'
p2938
g4
sg5
NssS'TMS_metsox__R__L_c'
p2939
(dp2940
S'maximum_status'
p2941
g12
sg5
F2.5362023996340572
ssS'TMS_3ohexACP_c'
p2942
(dp2943
S'maximum_status'
p2944
g4
sg5
NssS'TMS_feroxBfe_p'
p2945
(dp2946
S'maximum_status'
p2947
g12
sg5
F2.5362023996340572
ssS'TMS_eig3p_c'
p2948
(dp2949
S'maximum_status'
p2950
g12
sg5
F2.536202399626656
ssS'TMS_hphhlipa_c'
p2951
(dp2952
S'maximum_status'
p2953
g4
sg5
NssS'TMS_ncam_c'
p2954
(dp2955
S'maximum_status'
p2956
g12
sg5
F2.5362023996266596
ssS'TMS_hlipa_c'
p2957
(dp2958
S'maximum_status'
p2959
g4
sg5
NssS'TMS_ps160_c'
p2960
(dp2961
S'maximum_status'
p2962
g4
sg5
NssS'TMS_ctp_c'
p2963
(dp2964
S'maximum_status'
p2965
g4
sg5
NssS'TMS_ins_p'
p2966
(dp2967
S'maximum_status'
p2968
g4
sg5
NssS'TMS_dtdp4d6dm_c'
p2969
(dp2970
S'maximum_status'
p2971
g4
sg5
NssS'TMS_ins_c'
p2972
(dp2973
S'maximum_status'
p2974
g4
sg5
NssS'TMS_3dhsk_c'
p2975
(dp2976
S'maximum_status'
p2977
g4
sg5
NssS'TMS_agm_c'
p2978
(dp2979
S'maximum_status'
p2980
g12
sg5
F2.536202398700869
ssS'TMS_odecoa_c'
p2981
(dp2982
S'maximum_status'
p2983
g12
sg5
F2.536202399626669
ssS'TMS_bbtcoa_c'
p2984
(dp2985
S'maximum_status'
p2986
g12
sg5
F2.5362023996340572
ssS'TMS_octa_p'
p2987
(dp2988
S'maximum_status'
p2989
g12
sg5
F2.5362023996340572
ssS'TMS_pydam_c'
p2990
(dp2991
S'maximum_status'
p2992
g12
sg5
F2.5362023996340572
ssS'TMS_cpgn_p'
p2993
(dp2994
S'maximum_status'
p2995
g12
sg5
F2.5362023996340572
ssS'TMS_dhor__S_c'
p2996
(dp2997
S'maximum_status'
p2998
g12
sg5
F2.5362023996340572
ssS'TMS_agm_p'
p2999
(dp3000
S'maximum_status'
p3001
g12
sg5
F2.5362023996340572
ssS'TMS_octa_c'
p3002
(dp3003
S'maximum_status'
p3004
g12
sg5
F2.5362023996340572
ssS'TMS_anhm4p_c'
p3005
(dp3006
S'maximum_status'
p3007
g12
sg5
F2.5362023996340572
ssS'TMS_d5kgp_c'
p3008
(dp3009
S'maximum_status'
p3010
g12
sg5
F2.5362023996340572
ssS'TMS_cpgn_c'
p3011
(dp3012
S'maximum_status'
p3013
g12
sg5
F2.5362023996340572
ssS'TMS_codscl5b_c'
p3014
(dp3015
S'maximum_status'
p3016
g12
sg5
F2.5362023996340572
ssS'TMS_ps120_c'
p3017
(dp3018
S'maximum_status'
p3019
g12
sg5
F2.5362023996340572
ssS'TMS_1pyr5c_c'
p3020
(dp3021
S'maximum_status'
p3022
g12
sg5
F2.5362023984917643
ssS'TMS_alaala_p'
p3023
(dp3024
S'maximum_status'
p3025
g12
sg5
F2.5362023996340537
ssS'TMS_rmn_p'
p3026
(dp3027
S'maximum_status'
p3028
g12
sg5
F2.5362023996340572
ssS'TMS_udcpp_p'
p3029
(dp3030
S'maximum_status'
p3031
g4
sg5
NssS'TMS_icit_p'
p3032
(dp3033
S'maximum_status'
p3034
g12
sg5
F2.5362023996340572
ssS'TMS_alaala_c'
p3035
(dp3036
S'maximum_status'
p3037
g4
sg5
NssS'TMS_amob_c'
p3038
(dp3039
S'maximum_status'
p3040
g12
sg5
F2.5362023996340572
ssS'TMS_icit_c'
p3041
(dp3042
S'maximum_status'
p3043
g4
sg5
NssS'TMS_udcpp_c'
p3044
(dp3045
S'maximum_status'
p3046
g4
sg5
NssS'TMS_salchs2fe_p'
p3047
(dp3048
S'maximum_status'
p3049
g12
sg5
F2.5362023996340572
ssS'TMS_tcb_c'
p3050
(dp3051
S'maximum_status'
p3052
g12
sg5
F2.5362023996340572
ssS'TMS_actp_c'
p3053
(dp3054
S'maximum_status'
p3055
g4
sg5
NssS'TMS_camp_c'
p3056
(dp3057
S'maximum_status'
p3058
g12
sg5
F2.5362023996340572
ssS'TMS_aicar_c'
p3059
(dp3060
S'maximum_status'
p3061
g12
sg5
F2.5362023996340577
ssS'TMS_salchs2fe_c'
p3062
(dp3063
S'maximum_status'
p3064
g12
sg5
F2.5362023996340572
ssS'TMS_trnaglu_c'
p3065
(dp3066
S'maximum_status'
p3067
g4
sg5
NssS'TMS_tcb_p'
p3068
(dp3069
S'maximum_status'
p3070
g12
sg5
F2.5362023996340572
ssS'TMS_dca_p'
p3071
(dp3072
S'maximum_status'
p3073
g12
sg5
F2.5362023996340572
ssS'TMS_udpLa4o_c'
p3074
(dp3075
S'maximum_status'
p3076
g12
sg5
F2.5362023996340572
ssS'TMS_dca_c'
p3077
(dp3078
S'maximum_status'
p3079
g12
sg5
F2.5362023996266783
ssS'TMS_4c2me_c'
p3080
(dp3081
S'maximum_status'
p3082
g12
sg5
F2.5362023996340572
ssS'TMS_trnagly_c'
p3083
(dp3084
S'maximum_status'
p3085
g12
sg5
F2.5362023996266645
ssS'TMS_rmn_c'
p3086
(dp3087
S'maximum_status'
p3088
g12
sg5
F2.5362023996340572
ssS'TMS_2omph_c'
p3089
(dp3090
S'maximum_status'
p3091
g12
sg5
F2.5362023996340572
ssS'TMS_xylu__L_p'
p3092
(dp3093
S'maximum_status'
p3094
g12
sg5
F2.5362023996340572
ssS'TMS_3sala_c'
p3095
(dp3096
S'maximum_status'
p3097
g12
sg5
F2.5362023996340555
ssS'TMS_udcdp18Oag_p'
p3098
(dp3099
S'maximum_status'
p3100
g12
sg5
F2.5362023996340572
ssS'TMS_2tdecg3p_c'
p3101
(dp3102
S'maximum_status'
p3103
g12
sg5
F2.5362023996340572
ssS'TMS_xylu__L_c'
p3104
(dp3105
S'maximum_status'
p3106
g12
sg5
F2.5362023996340572
ssS'TMS_2aobut_c'
p3107
(dp3108
S'maximum_status'
p3109
g12
sg5
F2.5362023996340572
ssS'TMS_glucys_c'
p3110
(dp3111
S'maximum_status'
p3112
g12
sg5
F2.5362023996340572
ssS'TMS_2tdecg3p_p'
p3113
(dp3114
S'maximum_status'
p3115
g12
sg5
F2.5362023996340572
ssS'TMS_2cpr5p_c'
p3116
(dp3117
S'maximum_status'
p3118
g12
sg5
F2.5362023996340533
ssS'TMS_o2s_c'
p3119
(dp3120
S'maximum_status'
p3121
g12
sg5
F2.5362023996340572
ssS'TMS_gsn_p'
p3122
(dp3123
S'maximum_status'
p3124
g12
sg5
F2.5362023996340572
ssS'TMS_ocdca_c'
p3125
(dp3126
S'maximum_status'
p3127
g22
sg5
NssS'TMS_fru_c'
p3128
(dp3129
S'maximum_status'
p3130
g22
sg5
NssS'TMS_udcpg_c'
p3131
(dp3132
S'maximum_status'
p3133
g4
sg5
NssS'TMS_ocdca_p'
p3134
(dp3135
S'maximum_status'
p3136
g12
sg5
F2.5362023982172976
ssS'TMS_gsn_c'
p3137
(dp3138
S'maximum_status'
p3139
g12
sg5
F2.536202399626654
ssS'TMS_fru_p'
p3140
(dp3141
S'maximum_status'
p3142
g12
sg5
F2.5362023996340572
ssS'TMS_2ippm_c'
p3143
(dp3144
S'maximum_status'
p3145
g12
sg5
F2.5362023996340572
ssS'TMS_glyc__R_p'
p3146
(dp3147
S'maximum_status'
p3148
g12
sg5
F2.5362023996340515
ssS'TMS_fprica_c'
p3149
(dp3150
S'maximum_status'
p3151
g12
sg5
F2.5362023996340577
ssS'TMS_3psme_c'
p3152
(dp3153
S'maximum_status'
p3154
g4
sg5
NssS'TMS_cu_p'
p3155
(dp3156
S'maximum_status'
p3157
g12
sg5
F2.5362023996340572
ssS'TMS_dtdpglu_c'
p3158
(dp3159
S'maximum_status'
p3160
g4
sg5
NssS'TMS_3htdcoa_c'
p3161
(dp3162
S'maximum_status'
p3163
g12
sg5
F2.5362023996340572
ssS'TMS_pydxn_p'
p3164
(dp3165
S'maximum_status'
p3166
g12
sg5
F2.5362023996340572
ssS'TMS_3amp_p'
p3167
(dp3168
S'maximum_status'
p3169
g12
sg5
F2.5362023996340612
ssS'TMS_pydxn_c'
p3170
(dp3171
S'maximum_status'
p3172
g12
sg5
F2.5362023996340572
ssS'TMS_25aics_c'
p3173
(dp3174
S'maximum_status'
p3175
g12
sg5
F2.5362023996340572
ssS'TMS_od2coa_c'
p3176
(dp3177
S'maximum_status'
p3178
g12
sg5
F2.536202399626666
ssS'TMS_t3c11vaceACP_c'
p3179
(dp3180
S'maximum_status'
p3181
g4
sg5
NssS'TMS_t3c5ddeceACP_c'
p3182
(dp3183
S'maximum_status'
p3184
g4
sg5
NssS'TMS_acmanap_c'
p3185
(dp3186
S'maximum_status'
p3187
g12
sg5
F2.536202399626656
ssS'TMS_h_c'
p3188
(dp3189
S'maximum_status'
p3190
g4
sg5
NssS'TMS_tcynt_c'
p3191
(dp3192
S'maximum_status'
p3193
g12
sg5
F2.5362023996340572
ssS'TMS_udcdpgalrmnmanabe_c'
p3194
(dp3195
S'maximum_status'
p3196
g12
sg5
F2.536202399626671
ssS'TMS_crn__D_p'
p3197
(dp3198
S'maximum_status'
p3199
g12
sg5
F2.5362023996340572
ssS'TMS_h_p'
p3200
(dp3201
S'maximum_status'
p3202
g4
sg5
NssS'TMS_tcynt_p'
p3203
(dp3204
S'maximum_status'
p3205
g12
sg5
F2.5362023996340572
ssS'TMS_u23ga_c'
p3206
(dp3207
S'maximum_status'
p3208
g4
sg5
NssS'TMS_2agpe141_c'
p3209
(dp3210
S'maximum_status'
p3211
g12
sg5
F2.5362023996266814
ssS'TMS_1agpg120_p'
p3212
(dp3213
S'maximum_status'
p3214
g12
sg5
F2.5362023996340772
ssS'TMS_mal__L_c'
p3215
(dp3216
S'maximum_status'
p3217
g22
sg5
NssS'TMS_3opalmACP_c'
p3218
(dp3219
S'maximum_status'
p3220
g4
sg5
NssS'TMS_4abz_c'
p3221
(dp3222
S'maximum_status'
p3223
g4
sg5
NssS'TMS_gln__L_p'
p3224
(dp3225
S'maximum_status'
p3226
g12
sg5
F2.5362023996340533
ssS'TMS_34dhpacet_c'
p3227
(dp3228
S'maximum_status'
p3229
g12
sg5
F2.5362023996340572
ssS'TMS_peptido_ST_p'
p3230
(dp3231
S'maximum_status'
p3232
g4
sg5
NssS'TMS_gln__L_c'
p3233
(dp3234
S'maximum_status'
p3235
g4
sg5
NssS'TMS_udcdpgalrmnmanabe_p'
p3236
(dp3237
S'maximum_status'
p3238
g12
sg5
F2.5362023996340435
ssS'TMS_gagicolipa_c'
p3239
(dp3240
S'maximum_status'
p3241
g4
sg5
NssS'TMS_o2s_p'
p3242
(dp3243
S'maximum_status'
p3244
g12
sg5
F2.5362023996340572
ssS'TMS_1agpg161_p'
p3245
(dp3246
S'maximum_status'
p3247
g12
sg5
F2.5362023996266676
ssS'TMS_pgp161_p'
p3248
(dp3249
S'maximum_status'
p3250
g12
sg5
F2.5362023996340572
ssS'TMS_mql8_c'
p3251
(dp3252
S'maximum_status'
p3253
g12
sg5
F2.536202398487186
ssS'TMS_mmcoa__R_c'
p3254
(dp3255
S'maximum_status'
p3256
g12
sg5
F2.5362023996340572
ssS'TMS_glu__D_c'
p3257
(dp3258
S'maximum_status'
p3259
g4
sg5
NssS'TMS_pgp161_c'
p3260
(dp3261
S'maximum_status'
p3262
g4
sg5
NssS'TMS_23dhbzs3_p'
p3263
(dp3264
S'maximum_status'
p3265
g12
sg5
F2.5362023996340572
ssS'TMS_adocbip_c'
p3266
(dp3267
S'maximum_status'
p3268
g12
sg5
F2.5362023996340572
ssS'TMS_uamag_c'
p3269
(dp3270
S'maximum_status'
p3271
g4
sg5
NssS'TMS_q8_c'
p3272
(dp3273
S'maximum_status'
p3274
g4
sg5
NssS'TMS_r5p_c'
p3275
(dp3276
S'maximum_status'
p3277
g4
sg5
NssS'TMS_r5p_p'
p3278
(dp3279
S'maximum_status'
p3280
g12
sg5
F2.5362023996340572
ssS'TMS_1agpe180_p'
p3281
(dp3282
S'maximum_status'
p3283
g12
sg5
F2.5362023996266636
ssS'TMS_ru5p__D_c'
p3284
(dp3285
S'maximum_status'
p3286
g4
sg5
NssS'TMS_cpg180_c'
p3287
(dp3288
S'maximum_status'
p3289
g12
sg5
F2.5362023996266645
ssS'TMS_glyc2p_p'
p3290
(dp3291
S'maximum_status'
p3292
g12
sg5
F2.5362023996340572
ssS'TMS_feroxB_p'
p3293
(dp3294
S'maximum_status'
p3295
g12
sg5
F2.5362023996340572
ssS'TMS_cob2nda_c'
p3296
(dp3297
S'maximum_status'
p3298
g12
sg5
F2.5362023996340572
ssS'TMS_3ooctdACP_c'
p3299
(dp3300
S'maximum_status'
p3301
g12
sg5
F2.5354395621799
ssS'TMS_feroxB_c'
p3302
(dp3303
S'maximum_status'
p3304
g12
sg5
F2.5362023996340572
ssS'TMS_argtrna_c'
p3305
(dp3306
S'maximum_status'
p3307
g12
sg5
F2.5362023996266645
ssS'TMS_26dap__M_p'
p3308
(dp3309
S'maximum_status'
p3310
g12
sg5
F2.5362023996340572
ssS'TMS_guln__L_p'
p3311
(dp3312
S'maximum_status'
p3313
g12
sg5
F2.5362023996340572
ssS'TMS_26dap__M_c'
p3314
(dp3315
S'maximum_status'
p3316
g4
sg5
NssS'TMS_trdox_c'
p3317
(dp3318
S'maximum_status'
p3319
g12
sg5
F2.5361784232522866
ssS'TMS_guln__L_c'
p3320
(dp3321
S'maximum_status'
p3322
g12
sg5
F2.536202399626663
ssS'TMS_dann_c'
p3323
(dp3324
S'maximum_status'
p3325
g12
sg5
F2.5362023996340572
ssS'TMS_cbp_c'
p3326
(dp3327
S'maximum_status'
p3328
g4
sg5
NssS'TMS_udpLa4n_c'
p3329
(dp3330
S'maximum_status'
p3331
g12
sg5
F2.5362023996340572
ssS'TMS_tdcoa_c'
p3332
(dp3333
S'maximum_status'
p3334
g12
sg5
F2.5362023996340644
ssS'TMS_apg160_c'
p3335
(dp3336
S'maximum_status'
p3337
g12
sg5
F2.5362023996340572
ssS'TMS_dsbgrd_p'
p3338
(dp3339
S'maximum_status'
p3340
g12
sg5
F2.5362023996340572
ssS'TMS_lald__L_c'
p3341
(dp3342
S'maximum_status'
p3343
g12
sg5
F2.5362023996340515
ssS'TMS_maltpt_c'
p3344
(dp3345
S'maximum_status'
p3346
g12
sg5
F2.5362023996266765
ssS'TMS_methf_c'
p3347
(dp3348
S'maximum_status'
p3349
g12
sg5
F2.5362023996266707
ssS'TMS_maltpt_p'
p3350
(dp3351
S'maximum_status'
p3352
g12
sg5
F2.5362023996340555
ssS'TMS_val__L_c'
p3353
(dp3354
S'maximum_status'
p3355
g22
sg5
NssS'TMS_dttp_c'
p3356
(dp3357
S'maximum_status'
p3358
g4
sg5
NssS'TMS_1agpe140_p'
p3359
(dp3360
S'maximum_status'
p3361
g12
sg5
F2.5362023996340572
ssS'TMS_val__L_p'
p3362
(dp3363
S'maximum_status'
p3364
g4
sg5
NssS'TMS_trnathr_c'
p3365
(dp3366
S'maximum_status'
p3367
g12
sg5
F2.5362023996266645
ssS'TMS_gggagicolipa_c'
p3368
(dp3369
S'maximum_status'
p3370
g4
sg5
NssS'TMS_tddec2eACP_c'
p3371
(dp3372
S'maximum_status'
p3373
g4
sg5
NssS'TMS_udcdp7Oag_p'
p3374
(dp3375
S'maximum_status'
p3376
g12
sg5
F2.5362023996340572
ssS'TMS_nac_p'
p3377
(dp3378
S'maximum_status'
p3379
g12
sg5
F2.535877476281477
ssS'TMS_dtmp_p'
p3380
(dp3381
S'maximum_status'
p3382
g12
sg5
F2.5362023996266516
ssS'TMS_pe120_c'
p3383
(dp3384
S'maximum_status'
p3385
g12
sg5
F2.5362023996266703
ssS'TMS_nac_c'
p3386
(dp3387
S'maximum_status'
p3388
g22
sg5
NssS'TMS_dtmp_c'
p3389
(dp3390
S'maximum_status'
p3391
g4
sg5
NssS'TMS_pe120_p'
p3392
(dp3393
S'maximum_status'
p3394
g12
sg5
F2.5362023996340533
ssS'TMS_pap_c'
p3395
(dp3396
S'maximum_status'
p3397
g4
sg5
NssS'TMS_ditp_c'
p3398
(dp3399
S'maximum_status'
p3400
g12
sg5
F2.5362023996340572
ssS'TMS_gmhep17bp_c'
p3401
(dp3402
S'maximum_status'
p3403
g4
sg5
NssS'TMS_k_p'
p3404
(dp3405
S'maximum_status'
p3406
g4
sg5
NssS'TMS_toctd2eACP_c'
p3407
(dp3408
S'maximum_status'
p3409
g12
sg5
F2.5354395621849615
ssS'TMS_pi_p'
p3410
(dp3411
S'maximum_status'
p3412
g4
sg5
NssS'TMS_colipa_p'
p3413
(dp3414
S'maximum_status'
p3415
g4
sg5
NssS'TMS_for_p'
p3416
(dp3417
S'maximum_status'
p3418
g4
sg5
NssS'TMS_acgam_c'
p3419
(dp3420
S'maximum_status'
p3421
g12
sg5
F2.536202399634072
ssS'TMS_pe161_p'
p3422
(dp3423
S'maximum_status'
p3424
g4
sg5
NssS'TMS_trnahis_c'
p3425
(dp3426
S'maximum_status'
p3427
g12
sg5
F2.5362023996266654
ssS'TMS_k_c'
p3428
(dp3429
S'maximum_status'
p3430
g4
sg5
NssS'TMS_pi_c'
p3431
(dp3432
S'maximum_status'
p3433
g22
sg5
NssS'TMS_3hhdcoa_c'
p3434
(dp3435
S'maximum_status'
p3436
g12
sg5
F2.5362023996340572
ssS'TMS_iletrna_c'
p3437
(dp3438
S'maximum_status'
p3439
g12
sg5
F2.5362023996266667
ssS'TMS_colipa_c'
p3440
(dp3441
S'maximum_status'
p3442
g4
sg5
NssS'TMS_pe161_c'
p3443
(dp3444
S'maximum_status'
p3445
g4
sg5
NssS'TMS_acgam_p'
p3446
(dp3447
S'maximum_status'
p3448
g12
sg5
F2.536202399626666
ssS'TMS_for_c'
p3449
(dp3450
S'maximum_status'
p3451
g4
sg5
NssS'TMS_25drapp_c'
p3452
(dp3453
S'maximum_status'
p3454
g4
sg5
NssS'TMS_2dhglcn_c'
p3455
(dp3456
S'maximum_status'
p3457
g12
sg5
F2.5362023996340555
ssS'TMS_aspsa_c'
p3458
(dp3459
S'maximum_status'
p3460
g4
sg5
NssS'TMS_cgly_p'
p3461
(dp3462
S'maximum_status'
p3463
g12
sg5
F2.5362023996340533
ssS'TMS_trnaleu_c'
p3464
(dp3465
S'maximum_status'
p3466
g12
sg5
F2.5362023996266645
ssS'TMS_5drib_c'
p3467
(dp3468
S'maximum_status'
p3469
g12
sg5
F2.5362023996340572
ssS'TMS_cgly_c'
p3470
(dp3471
S'maximum_status'
p3472
g12
sg5
F2.5362023996340572
ssS'TMS_3c2hmp_c'
p3473
(dp3474
S'maximum_status'
p3475
g12
sg5
F2.536202399626662
ssS'TMS_4hba_c'
p3476
(dp3477
S'maximum_status'
p3478
g12
sg5
F2.5362023996340572
ssS'TMS_foam_c'
p3479
(dp3480
S'maximum_status'
p3481
g4
sg5
NssS'TMS_dsbard_p'
p3482
(dp3483
S'maximum_status'
p3484
g12
sg5
F2.5362023996340572
ssS'TMS_foam_p'
p3485
(dp3486
S'maximum_status'
p3487
g4
sg5
NssS'TMS_ohpb_c'
p3488
(dp3489
S'maximum_status'
p3490
g12
sg5
F2.5362023996340572
ssS'TMS_cdpdodec11eg_c'
p3491
(dp3492
S'maximum_status'
p3493
g4
sg5
NssS'TMS_acmalt_c'
p3494
(dp3495
S'maximum_status'
p3496
g12
sg5
F2.5362023996340572
ssS'TMS_valtrna_c'
p3497
(dp3498
S'maximum_status'
p3499
g12
sg5
F2.5362023996266645
ssS'TMS_1agpg181_p'
p3500
(dp3501
S'maximum_status'
p3502
g12
sg5
F2.5362023996340572
ssS'TMS_dcacoa_c'
p3503
(dp3504
S'maximum_status'
p3505
g12
sg5
F2.5362023996266583
ssS'TMS_3ump_p'
p3506
(dp3507
S'maximum_status'
p3508
g12
sg5
F2.5362023996340572
ssS'TMS_tyrp_p'
p3509
(dp3510
S'maximum_status'
p3511
g12
sg5
F2.5362023996340572
ssS'TMS_kdo2lipid4L_c'
p3512
(dp3513
S'maximum_status'
p3514
g4
sg5
NssS'TMS_gal__bD_p'
p3515
(dp3516
S'maximum_status'
p3517
g12
sg5
F2.5362023996340572
ssS'TMS_prbamp_c'
p3518
(dp3519
S'maximum_status'
p3520
g12
sg5
F2.5362023996340572
ssS'TMS_2ombzl_c'
p3521
(dp3522
S'maximum_status'
p3523
g12
sg5
F2.5362023996340572
ssS'TMS_sarcs_c'
p3524
(dp3525
S'maximum_status'
p3526
g12
sg5
F2.5362023996266654
ssS'TMS_pg181_c'
p3527
(dp3528
S'maximum_status'
p3529
g12
sg5
F2.536196180588555
ssS'TMS_12dgr141_p'
p3530
(dp3531
S'maximum_status'
p3532
g12
sg5
F2.5362023996340572
ssS'TMS_pg181_p'
p3533
(dp3534
S'maximum_status'
p3535
g4
sg5
NssS'TMS_actACP_c'
p3536
(dp3537
S'maximum_status'
p3538
g4
sg5
NssS'TMS_ascb__L_p'
p3539
(dp3540
S'maximum_status'
p3541
g12
sg5
F2.5362023996266725
ssS'TMS_12dgr141_c'
p3542
(dp3543
S'maximum_status'
p3544
g12
sg5
F2.5362023996340572
ssS'TMS_cdpdodecg_c'
p3545
(dp3546
S'maximum_status'
p3547
g4
sg5
NssS'TMS_progly_c'
p3548
(dp3549
S'maximum_status'
p3550
g12
sg5
F2.5362023996340572
ssS'TMS_udcpo4_p'
p3551
(dp3552
S'maximum_status'
p3553
g12
sg5
F2.5362023996340572
ssS'TMS_malttr_c'
p3554
(dp3555
S'maximum_status'
p3556
g12
sg5
F2.536202399634072
ssS'TMS_5dh4dglc_c'
p3557
(dp3558
S'maximum_status'
p3559
g12
sg5
F2.5362023996340572
ssS'TMS_udcpo4_c'
p3560
(dp3561
S'maximum_status'
p3562
g4
sg5
NssS'TMS_progly_p'
p3563
(dp3564
S'maximum_status'
p3565
g12
sg5
F2.5362023996340572
ssS'TMS_malttr_p'
p3566
(dp3567
S'maximum_status'
p3568
g12
sg5
F2.5362023996340572
ssS'TMS_pg140_p'
p3569
(dp3570
S'maximum_status'
p3571
g4
sg5
NssS'TMS_acglu_c'
p3572
(dp3573
S'maximum_status'
p3574
g22
sg5
NssS'TMS_Nmtrp_c'
p3575
(dp3576
S'maximum_status'
p3577
g12
sg5
F2.5362023996266645
ssS'TMS_pg140_c'
p3578
(dp3579
S'maximum_status'
p3580
g12
sg5
F2.536173381759526
ssS'TMS_ocdcea_c'
p3581
(dp3582
S'maximum_status'
p3583
g22
sg5
NssS'TMS_tre6p_c'
p3584
(dp3585
S'maximum_status'
p3586
g12
sg5
F2.5362023996266743
ssS'TMS_u3aga_c'
p3587
(dp3588
S'maximum_status'
p3589
g4
sg5
NssS'TMS_leutrna_c'
p3590
(dp3591
S'maximum_status'
p3592
g12
sg5
F2.5362023996266645
ssS'TMS_pro__L_p'
p3593
(dp3594
S'maximum_status'
p3595
g4
sg5
NssS'TMS_pro__L_c'
p3596
(dp3597
S'maximum_status'
p3598
g22
sg5
NssS'TMS_murein5p3p_p'
p3599
(dp3600
S'maximum_status'
p3601
g12
sg5
F2.5362023996340675
ssS'TMS_glntrna_c'
p3602
(dp3603
S'maximum_status'
p3604
g12
sg5
F2.5362023996266654
ssS'TMS_2dmmql8_c'
p3605
(dp3606
S'maximum_status'
p3607
g12
sg5
F2.5362023996340572
ssS'TMS_dha_p'
p3608
(dp3609
S'maximum_status'
p3610
g12
sg5
F2.5362023996266756
ssS'TMS_feoxam__un_c'
p3611
(dp3612
S'maximum_status'
p3613
g12
sg5
F2.5362023996340572
ssS'TMS_unaga_c'
p3614
(dp3615
S'maximum_status'
p3616
g12
sg5
F2.5362023996340572
ssS'TMS_eca4und_p'
p3617
(dp3618
S'maximum_status'
p3619
g12
sg5
F2.5362023996340572
ssS'TMS_feoxam__un_p'
p3620
(dp3621
S'maximum_status'
p3622
g12
sg5
F2.5362023996340572
ssS'TMS_dha_c'
p3623
(dp3624
S'maximum_status'
p3625
g12
sg5
F2.5362023996266627
ssS'TMS_mg2_c'
p3626
(dp3627
S'maximum_status'
p3628
g4
sg5
NssS'TMS_mlthf_c'
p3629
(dp3630
S'maximum_status'
p3631
g4
sg5
NssS'TMS_ctbt_p'
p3632
(dp3633
S'maximum_status'
p3634
g12
sg5
F2.5362023996340572
ssS'TMS_hmfurn_c'
p3635
(dp3636
S'maximum_status'
p3637
g4
sg5
NssS'TMS_mg2_p'
p3638
(dp3639
S'maximum_status'
p3640
g4
sg5
NssS'TMS_ctbt_c'
p3641
(dp3642
S'maximum_status'
p3643
g12
sg5
F2.5362023996340572
ssS'TMS_h2o_p'
p3644
(dp3645
S'maximum_status'
p3646
g4
sg5
NssS'TMS_hpyr_c'
p3647
(dp3648
S'maximum_status'
p3649
g12
sg5
F2.5362023985207856
ssS'TMS_lipidA_c'
p3650
(dp3651
S'maximum_status'
p3652
g4
sg5
NssS'TMS_h2o_c'
p3653
(dp3654
S'maximum_status'
p3655
g4
sg5
NssS'TMS_spmd_c'
p3656
(dp3657
S'maximum_status'
p3658
g22
sg5
NssS'TMS_acgam1p_c'
p3659
(dp3660
S'maximum_status'
p3661
g4
sg5
NssS'TMS_ac_c'
p3662
(dp3663
S'maximum_status'
p3664
g4
sg5
NssS'TMS_2obut_c'
p3665
(dp3666
S'maximum_status'
p3667
g12
sg5
F2.5362023996340572
ssS'TMS_mmet_p'
p3668
(dp3669
S'maximum_status'
p3670
g12
sg5
F2.5362023996340572
ssS'TMS_spmd_p'
p3671
(dp3672
S'maximum_status'
p3673
g12
sg5
F2.5362023996340572
ssS'TMS_ac_p'
p3674
(dp3675
S'maximum_status'
p3676
g4
sg5
NssS'TMS_acgam1p_p'
p3677
(dp3678
S'maximum_status'
p3679
g12
sg5
F2.5362023996266645
ssS'TMS_oxam_c'
p3680
(dp3681
S'maximum_status'
p3682
g12
sg5
F2.5362023996340635
ssS'TMS_dhna_c'
p3683
(dp3684
S'maximum_status'
p3685
g12
sg5
F2.5362023996340572
ssS'TMS_mi1p__D_c'
p3686
(dp3687
S'maximum_status'
p3688
g12
sg5
F2.5362023996266645
ssS'TMS_h2mb4p_c'
p3689
(dp3690
S'maximum_status'
p3691
g12
sg5
F2.5362023996266716
ssS'TMS_prbatp_c'
p3692
(dp3693
S'maximum_status'
p3694
g12
sg5
F2.5362023996340572
ssS'TMS_oc2coa_c'
p3695
(dp3696
S'maximum_status'
p3697
g12
sg5
F2.536202399626662
ssS'TMS_dhf_c'
p3698
(dp3699
S'maximum_status'
p3700
g4
sg5
NssS'TMS_5aprbu_c'
p3701
(dp3702
S'maximum_status'
p3703
g4
sg5
NssS'TMS_dad__5_c'
p3704
(dp3705
S'maximum_status'
p3706
g12
sg5
F2.5362023996340515
ssS'TMS_dump_c'
p3707
(dp3708
S'maximum_status'
p3709
g4
sg5
NssS'TMS_mso3_p'
p3710
(dp3711
S'maximum_status'
p3712
g12
sg5
F2.5362023996340572
ssS'TMS_ppgpp_c'
p3713
(dp3714
S'maximum_status'
p3715
g12
sg5
F2.5362023996266596
ssS'TMS_dump_p'
p3716
(dp3717
S'maximum_status'
p3718
g12
sg5
F2.5362023996340572
ssS'TMS_sbzcoa_c'
p3719
(dp3720
S'maximum_status'
p3721
g12
sg5
F2.5362023996340572
ssS'TMS_glcr_c'
p3722
(dp3723
S'maximum_status'
p3724
g12
sg5
F2.5362023996340572
ssS'TMS_cpe180_c'
p3725
(dp3726
S'maximum_status'
p3727
g12
sg5
F2.5362023996266645
ssS'TMS_cynt_p'
p3728
(dp3729
S'maximum_status'
p3730
g12
sg5
F2.5362023996340572
ssS'TMS_2pg_p'
p3731
(dp3732
S'maximum_status'
p3733
g12
sg5
F2.536202399634049
ssS'TMS_dutp_c'
p3734
(dp3735
S'maximum_status'
p3736
g12
sg5
F2.536202399626676
ssS'TMS_dmpp_c'
p3737
(dp3738
S'maximum_status'
p3739
g12
sg5
F2.5362023996266676
ssS'TMS_2tdec7eg3p_c'
p3740
(dp3741
S'maximum_status'
p3742
g12
sg5
F2.5362023996340572
ssS'TMS_anhgm3p_c'
p3743
(dp3744
S'maximum_status'
p3745
g12
sg5
F2.5362023996340524
ssS'TMS_12dgr181_c'
p3746
(dp3747
S'maximum_status'
p3748
g12
sg5
F2.5362023996340666
ssS'TMS_dsbgox_p'
p3749
(dp3750
S'maximum_status'
p3751
g12
sg5
F2.5362023996266654
ssS'TMS_2tdec7eg3p_p'
p3752
(dp3753
S'maximum_status'
p3754
g12
sg5
F2.5362023996340572
ssS'TMS_12dgr181_p'
p3755
(dp3756
S'maximum_status'
p3757
g4
sg5
NssS'TMS_anhgm3p_p'
p3758
(dp3759
S'maximum_status'
p3760
g12
sg5
F2.536202399634065
ssS'TMS_gam_p'
p3761
(dp3762
S'maximum_status'
p3763
g12
sg5
F2.5362023996340572
ssS'TMS_2hh24dd_c'
p3764
(dp3765
S'maximum_status'
p3766
g12
sg5
F2.5362023996340533
ssS'TMS_dad__2_p'
p3767
(dp3768
S'maximum_status'
p3769
g4
sg5
NssS'TMS_dad__2_c'
p3770
(dp3771
S'maximum_status'
p3772
g4
sg5
NssS'TMS_4pasp_c'
p3773
(dp3774
S'maximum_status'
p3775
g4
sg5
NssS'TMS_pa2_ST_p'
p3776
(dp3777
S'maximum_status'
p3778
g4
sg5
NssS'TMS_ctbtcoa_c'
p3779
(dp3780
S'maximum_status'
p3781
g12
sg5
F2.536202399634054
ssS'TMS_lipidX_c'
p3782
(dp3783
S'maximum_status'
p3784
g4
sg5
NssS'TMS_clpn161_p'
p3785
(dp3786
S'maximum_status'
p3787
g4
sg5
NssS'TMS_3hdcoa_c'
p3788
(dp3789
S'maximum_status'
p3790
g12
sg5
F2.5362023996266596
ssS'TMS_adocbl_p'
p3791
(dp3792
S'maximum_status'
p3793
g12
sg5
F2.5362023996340572
ssS'TMS_alltt_c'
p3794
(dp3795
S'maximum_status'
p3796
g12
sg5
F2.536202399634058
ssS'TMS_hx2coa_c'
p3797
(dp3798
S'maximum_status'
p3799
g12
sg5
F2.536202399634065
ssS'TMS_adocbl_c'
p3800
(dp3801
S'maximum_status'
p3802
g12
sg5
F2.5362023996340572
ssS'TMS_bglycogen_c'
p3803
(dp3804
S'maximum_status'
p3805
g12
sg5
F2.5362023996340572
ssS'TMS_2agpg120_c'
p3806
(dp3807
S'maximum_status'
p3808
g12
sg5
F2.5362023996340533
ssS'TMS_2agpg120_p'
p3809
(dp3810
S'maximum_status'
p3811
g12
sg5
F2.5362023996340572
ssS'TMS_clpn120_p'
p3812
(dp3813
S'maximum_status'
p3814
g12
sg5
F2.5362023996266503
ssS'TMS_2hdecg3p_c'
p3815
(dp3816
S'maximum_status'
p3817
g12
sg5
F2.5362023996340572
ssS'TMS_ipdp_c'
p3818
(dp3819
S'maximum_status'
p3820
g12
sg5
F2.5362023996340572
ssS'TMS_murein4px4p4p_p'
p3821
(dp3822
S'maximum_status'
p3823
g12
sg5
F2.5362023996266503
ssS'TMS_au_p'
p3824
(dp3825
S'maximum_status'
p3826
g12
sg5
F2.5362023996266645
ssS'TMS_anhm_c'
p3827
(dp3828
S'maximum_status'
p3829
g12
sg5
F2.536202399626673
ssS'TMS_2hdecg3p_p'
p3830
(dp3831
S'maximum_status'
p3832
g12
sg5
F2.5362023996340572
ssS'TMS_dhap_c'
p3833
(dp3834
S'maximum_status'
p3835
g22
sg5
NssS'TMS_au_c'
p3836
(dp3837
S'maximum_status'
p3838
g12
sg5
F2.5362023996266645
ssS'TMS_sucsal_c'
p3839
(dp3840
S'maximum_status'
p3841
g12
sg5
F2.5362023996340572
ssS'TMS_udcdp16Oag_p'
p3842
(dp3843
S'maximum_status'
p3844
g12
sg5
F2.5362023996340572
ssS'TMS_tdeACP_c'
p3845
(dp3846
S'maximum_status'
p3847
g4
sg5
NssS'TMS_urocan_c'
p3848
(dp3849
S'maximum_status'
p3850
g4
sg5
NssS'TMS_cpppg3_c'
p3851
(dp3852
S'maximum_status'
p3853
g12
sg5
F2.536202399626655
ssS'TMS_urate_c'
p3854
(dp3855
S'maximum_status'
p3856
g12
sg5
F2.5362023996266645
ssS'TMS_fruur_p'
p3857
(dp3858
S'maximum_status'
p3859
g12
sg5
F2.5362023996340572
ssS'TMS_rib__D_p'
p3860
(dp3861
S'maximum_status'
p3862
g12
sg5
F2.5362023996266654
ssS'TMS_3mop_c'
p3863
(dp3864
S'maximum_status'
p3865
g12
sg5
F2.536202399626661
ssS'TMS_cpgn__un_c'
p3866
(dp3867
S'maximum_status'
p3868
g12
sg5
F2.5362023996340572
ssS'TMS_rib__D_c'
p3869
(dp3870
S'maximum_status'
p3871
g22
sg5
NssS'TMS_cpgn__un_p'
p3872
(dp3873
S'maximum_status'
p3874
g12
sg5
F2.5362023996340572
ssS'TMS_dgmp_p'
p3875
(dp3876
S'maximum_status'
p3877
g12
sg5
F2.5362023996266596
ssS'TMS_2mecdp_c'
p3878
(dp3879
S'maximum_status'
p3880
g12
sg5
F2.536202399626668
ssS'TMS_cdpdtdecg_c'
p3881
(dp3882
S'maximum_status'
p3883
g4
sg5
NssS'TMS_5apru_c'
p3884
(dp3885
S'maximum_status'
p3886
g4
sg5
NssS'TMS_arg__L_c'
p3887
(dp3888
S'maximum_status'
p3889
g4
sg5
NssS'TMS_dgmp_c'
p3890
(dp3891
S'maximum_status'
p3892
g12
sg5
F2.5362023996340706
ssS'TMS_arg__L_p'
p3893
(dp3894
S'maximum_status'
p3895
g4
sg5
NssS'TMS_galctn__L_p'
p3896
(dp3897
S'maximum_status'
p3898
g12
sg5
F2.5362023996340572
ssS'TMS_mercppyr_c'
p3899
(dp3900
S'maximum_status'
p3901
g12
sg5
F2.5362023996266645
ssS'TMS_codscl6a_c'
p3902
(dp3903
S'maximum_status'
p3904
g12
sg5
F2.5362023996340572
ssS'TMS_pgp140_c'
p3905
(dp3906
S'maximum_status'
p3907
g4
sg5
NssS'TMS_ribflv_c'
p3908
(dp3909
S'maximum_status'
p3910
g4
sg5
NssS'TMS_ametam_c'
p3911
(dp3912
S'maximum_status'
p3913
g4
sg5
NssS'TMS_pgp140_p'
p3914
(dp3915
S'maximum_status'
p3916
g12
sg5
F2.5362023996340572
ssS'TMS_sertrna_c'
p3917
(dp3918
S'maximum_status'
p3919
g12
sg5
F2.5362023996266645
ssS'TMS_thrp_c'
p3920
(dp3921
S'maximum_status'
p3922
g12
sg5
F2.5362023996340572
ssS'TMS_adocblp_c'
p3923
(dp3924
S'maximum_status'
p3925
g12
sg5
F2.5362023996340577
ssS'TMS_thrp_p'
p3926
(dp3927
S'maximum_status'
p3928
g12
sg5
F2.5362023996340572
ssS'TMS_12dgr161_c'
p3929
(dp3930
S'maximum_status'
p3931
g12
sg5
F2.536202399634056
ssS'TMS_udcpdp_p'
p3932
(dp3933
S'maximum_status'
p3934
g4
sg5
NssS'TMS_galctn__D_p'
p3935
(dp3936
S'maximum_status'
p3937
g12
sg5
F2.5362023996266467
ssS'TMS_fum_p'
p3938
(dp3939
S'maximum_status'
p3940
g12
sg5
F2.5362023996340572
ssS'TMS_aact_c'
p3941
(dp3942
S'maximum_status'
p3943
g12
sg5
F2.5362023996340572
ssS'TMS_12dgr161_p'
p3944
(dp3945
S'maximum_status'
p3946
g4
sg5
NssS'TMS_galctn__D_c'
p3947
(dp3948
S'maximum_status'
p3949
g12
sg5
F2.5362023996340572
ssS'TMS_udcpdp_c'
p3950
(dp3951
S'maximum_status'
p3952
g4
sg5
NssS'TMS_fum_c'
p3953
(dp3954
S'maximum_status'
p3955
g12
sg5
F2.536202376782759
ssS'TMS_alltn_c'
p3956
(dp3957
S'maximum_status'
p3958
g12
sg5
F2.5362023996266596
ssS'TMS_alltn_p'
p3959
(dp3960
S'maximum_status'
p3961
g12
sg5
F2.5362023996340572
ssS'TMS_2omhmbl_c'
p3962
(dp3963
S'maximum_status'
p3964
g12
sg5
F2.5362023996340572
ssS'TMS_feenter_p'
p3965
(dp3966
S'maximum_status'
p3967
g12
sg5
F2.5362023996340572
ssS'TMS_1agpg140_p'
p3968
(dp3969
S'maximum_status'
p3970
g12
sg5
F2.536202399634058
ssS'TMS_feenter_c'
p3971
(dp3972
S'maximum_status'
p3973
g12
sg5
F2.5362023996340572
ssS'TMS_pa181_c'
p3974
(dp3975
S'maximum_status'
p3976
g4
sg5
NssS'TMS_3hbcoa_c'
p3977
(dp3978
S'maximum_status'
p3979
g12
sg5
F2.5362023996266765
ssS'TMS_hdd2coa_c'
p3980
(dp3981
S'maximum_status'
p3982
g12
sg5
F2.5362023996266716
ssS'TMS_btcoa_c'
p3983
(dp3984
S'maximum_status'
p3985
g12
sg5
F2.536202399626662
ssS'TMS_tmao_p'
p3986
(dp3987
S'maximum_status'
p3988
g12
sg5
F2.5362023996340555
ssS'TMS_murein5px4p_p'
p3989
(dp3990
S'maximum_status'
p3991
g12
sg5
F2.5362023996340572
ssS'TMS_3hhexACP_c'
p3992
(dp3993
S'maximum_status'
p3994
g4
sg5
NssS'TMS_2odec11eg3p_c'
p3995
(dp3996
S'maximum_status'
p3997
g12
sg5
F2.536202398508311
ssS'TMS_26dap__LL_c'
p3998
(dp3999
S'maximum_status'
p4000
g22
sg5
NssS'TMS_2odec11eg3p_p'
p4001
(dp4002
S'maximum_status'
p4003
g12
sg5
F2.536202398508311
ssS'TMS_trnasecys_c'
p4004
(dp4005
S'maximum_status'
p4006
g12
sg5
F2.5362023996266654
ssS'TMS_sl26da_c'
p4007
(dp4008
S'maximum_status'
p4009
g4
sg5
NssS'TMS_udcdp5Oag_p'
p4010
(dp4011
S'maximum_status'
p4012
g12
sg5
F2.5362023996340572
ssS'TMS_2agpg181_p'
p4013
(dp4014
S'maximum_status'
p4015
g12
sg5
F2.5362023996340572
ssS'TMS_2mcacn_c'
p4016
(dp4017
S'maximum_status'
p4018
g12
sg5
F2.5362023996266467
ssS'TMS_murein3p3p_p'
p4019
(dp4020
S'maximum_status'
p4021
g12
sg5
F2.5362023996340572
ssS'TMS_2agpg181_c'
p4022
(dp4023
S'maximum_status'
p4024
g12
sg5
F2.5362023996266654
ssS'TMS_ahcys_c'
p4025
(dp4026
S'maximum_status'
p4027
g4
sg5
NssS'TMS_lipa_c'
p4028
(dp4029
S'maximum_status'
p4030
g4
sg5
NssS'TMS_2agpe161_p'
p4031
(dp4032
S'maximum_status'
p4033
g12
sg5
F2.5362023996340737
ssS'TMS_pgp180_p'
p4034
(dp4035
S'maximum_status'
p4036
g12
sg5
F2.5362023996340572
ssS'TMS_cu2_c'
p4037
(dp4038
S'maximum_status'
p4039
g4
sg5
NssS'TMS_lipa_p'
p4040
(dp4041
S'maximum_status'
p4042
g12
sg5
F2.5362023996340572
ssS'TMS_2agpe161_c'
p4043
(dp4044
S'maximum_status'
p4045
g12
sg5
F2.536202399626654
ssS'TMS_23cgmp_p'
p4046
(dp4047
S'maximum_status'
p4048
g12
sg5
F2.5362023996340572
ssS'TMS_trnapro_c'
p4049
(dp4050
S'maximum_status'
p4051
g12
sg5
F2.5362023996266645
ssS'TMS_pgp180_c'
p4052
(dp4053
S'maximum_status'
p4054
g4
sg5
NssS'TMS_cu2_p'
p4055
(dp4056
S'maximum_status'
p4057
g4
sg5
NssS'TMS_udcdp6Oag_p'
p4058
(dp4059
S'maximum_status'
p4060
g12
sg5
F2.5362023996340572
ssS'TMS_prlp_c'
p4061
(dp4062
S'maximum_status'
p4063
g12
sg5
F2.5362023996340572
ssS'TMS_3ohcoa_c'
p4064
(dp4065
S'maximum_status'
p4066
g12
sg5
F2.5362023996266663
ssS'TMS_phphhlipa_c'
p4067
(dp4068
S'maximum_status'
p4069
g4
sg5
NssS'TMS_dctp_c'
p4070
(dp4071
S'maximum_status'
p4072
g4
sg5
NssS'TMS_2agpe120_p'
p4073
(dp4074
S'maximum_status'
p4075
g12
sg5
F2.5362023996340572
ssS'TMS_phhlipa_c'
p4076
(dp4077
S'maximum_status'
p4078
g4
sg5
NssS'TMS_udpgal_p'
p4079
(dp4080
S'maximum_status'
p4081
g12
sg5
F2.5362023996340572
ssS'TMS_mqn8_c'
p4082
(dp4083
S'maximum_status'
p4084
g12
sg5
F2.536202398487186
ssS'TMS_2agpe120_c'
p4085
(dp4086
S'maximum_status'
p4087
g12
sg5
F2.5362023996340533
ssS'TMS_fe3_c'
p4088
(dp4089
S'maximum_status'
p4090
g12
sg5
F2.536202399626662
ssS'TMS_udpgal_c'
p4091
(dp4092
S'maximum_status'
p4093
g4
sg5
NssS'TMS_gam6p_p'
p4094
(dp4095
S'maximum_status'
p4096
g12
sg5
F2.5362023996266623
ssS'TMS_glyald_p'
p4097
(dp4098
S'maximum_status'
p4099
g12
sg5
F2.536202398487186
ssS'TMS_4ahmmp_c'
p4100
(dp4101
S'maximum_status'
p4102
g12
sg5
F2.5362023996266645
ssS'TMS_gam6p_c'
p4103
(dp4104
S'maximum_status'
p4105
g4
sg5
NssS'TMS_glyald_c'
p4106
(dp4107
S'maximum_status'
p4108
g22
sg5
NssS'TMS_ethso3_p'
p4109
(dp4110
S'maximum_status'
p4111
g12
sg5
F2.5362023996340572
ssS'TMS_isetac_p'
p4112
(dp4113
S'maximum_status'
p4114
g12
sg5
F2.5362023996340572
ssS'TMS_3ocvac11eACP_c'
p4115
(dp4116
S'maximum_status'
p4117
g4
sg5
NssS'TMS_datp_c'
p4118
(dp4119
S'maximum_status'
p4120
g4
sg5
NssS'TMS_ps140_c'
p4121
(dp4122
S'maximum_status'
p4123
g4
sg5
NssS'TMS_dsbdox_c'
p4124
(dp4125
S'maximum_status'
p4126
g12
sg5
F2.5362023996340572
ssS'TMS_ACP_c'
p4127
(dp4128
S'maximum_status'
p4129
g4
sg5
NssS'TMS_trnaval_c'
p4130
(dp4131
S'maximum_status'
p4132
g12
sg5
F2.5362023996266645
ssS'TMS_tton_p'
p4133
(dp4134
S'maximum_status'
p4135
g12
sg5
F2.5362023996340572
ssS'TMS_udcdp10Oag_p'
p4136
(dp4137
S'maximum_status'
p4138
g12
sg5
F2.5362023996340572
ssS'TMS_2ahbut_c'
p4139
(dp4140
S'maximum_status'
p4141
g12
sg5
F2.536202399626663
ssS'TMS_skm5p_c'
p4142
(dp4143
S'maximum_status'
p4144
g4
sg5
NssS'TMS_mobd_p'
p4145
(dp4146
S'maximum_status'
p4147
g4
sg5
NssS'TMS_no2_c'
p4148
(dp4149
S'maximum_status'
p4150
g12
sg5
F2.5362023996340683
ssS'TMS_no2_p'
p4151
(dp4152
S'maximum_status'
p4153
g12
sg5
F2.5362023996340644
ssS'TMS_mobd_c'
p4154
(dp4155
S'maximum_status'
p4156
g4
sg5
NssS'TMS_alac__S_c'
p4157
(dp4158
S'maximum_status'
p4159
g12
sg5
F2.5362023984871844
ssS'TMS_mnl1p_c'
p4160
(dp4161
S'maximum_status'
p4162
g12
sg5
F2.5362023996340572
ssS'TMS_acon__T_c'
p4163
(dp4164
S'maximum_status'
p4165
g12
sg5
F2.5362023996340572
ssS'TMS_tet_p'
p4166
(dp4167
S'maximum_status'
p4168
g12
sg5
F2.5362023996266676
ssS'TMS_AEP_c'
p4169
(dp4170
S'maximum_status'
p4171
g12
sg5
F2.5362023996266667
ssS'TMS_2kmb_c'
p4172
(dp4173
S'maximum_status'
p4174
g4
sg5
NssS'TMS_3ophb_c'
p4175
(dp4176
S'maximum_status'
p4177
g12
sg5
F2.5362023996340572
ssS'TMS_3hcvac11eACP_c'
p4178
(dp4179
S'maximum_status'
p4180
g4
sg5
NssS'TMS_AEP_p'
p4181
(dp4182
S'maximum_status'
p4183
g12
sg5
F2.5362023996340572
ssS'TMS_trdrd_c'
p4184
(dp4185
S'maximum_status'
p4186
g12
sg5
F2.5361784232522866
ssS'TMS_galct__D_c'
p4187
(dp4188
S'maximum_status'
p4189
g12
sg5
F2.5362023996340572
ssS'TMS_imacp_c'
p4190
(dp4191
S'maximum_status'
p4192
g12
sg5
F2.5362023996340572
ssS'TMS_galct__D_p'
p4193
(dp4194
S'maximum_status'
p4195
g12
sg5
F2.5362023996340572
ssS'TMS_tyrtrna_c'
p4196
(dp4197
S'maximum_status'
p4198
g12
sg5
F2.5362023996266645
ssS'TMS_udcdp14Oag_p'
p4199
(dp4200
S'maximum_status'
p4201
g12
sg5
F2.5362023996266636
ssS'TMS_murein4p4p_p'
p4202
(dp4203
S'maximum_status'
p4204
g12
sg5
F2.5362023996340772
ssS'TMS_fad_c'
p4205
(dp4206
S'maximum_status'
p4207
g4
sg5
NssS'TMS_3hcddec5eACP_c'
p4208
(dp4209
S'maximum_status'
p4210
g4
sg5
NssS'TMS_amp_c'
p4211
(dp4212
S'maximum_status'
p4213
g22
sg5
NssS'TMS_pphn_c'
p4214
(dp4215
S'maximum_status'
p4216
g12
sg5
F2.5362023996266725
ssS'TMS_gcald_c'
p4217
(dp4218
S'maximum_status'
p4219
g4
sg5
NssS'TMS_pa120_p'
p4220
(dp4221
S'maximum_status'
p4222
g12
sg5
F2.536202399626659
ssS'TMS_amp_p'
p4223
(dp4224
S'maximum_status'
p4225
g12
sg5
F2.5362023996340555
ssS'TMS_s7p_c'
p4226
(dp4227
S'maximum_status'
p4228
g4
sg5
NssS'TMS_pa120_c'
p4229
(dp4230
S'maximum_status'
p4231
g12
sg5
F2.5362023996340572
ssS'TMS_n8aspmd_c'
p4232
(dp4233
S'maximum_status'
p4234
g12
sg5
F2.5362023996340555
ssS'TMS_1agpe161_p'
p4235
(dp4236
S'maximum_status'
p4237
g12
sg5
F2.5362023996340572
ssS'TMS_q8h2_c'
p4238
(dp4239
S'maximum_status'
p4240
g4
sg5
NssS'TMS_3hpalmACP_c'
p4241
(dp4242
S'maximum_status'
p4243
g4
sg5
NssS'TMS_anth_c'
p4244
(dp4245
S'maximum_status'
p4246
g12
sg5
F2.536202399626664
ssS'TMS_fmnh2_c'
p4247
(dp4248
S'maximum_status'
p4249
g12
sg5
F2.5362023996340572
ssS'TMS_23dhba_c'
p4250
(dp4251
S'maximum_status'
p4252
g12
sg5
F2.5362023996340572
ssS'TMS_melib_p'
p4253
(dp4254
S'maximum_status'
p4255
g12
sg5
F2.5362023996340572
ssS'TMS_ap4a_c'
p4256
(dp4257
S'maximum_status'
p4258
g12
sg5
F2.536202399626658
ssS'TMS_rnam_c'
p4259
(dp4260
S'maximum_status'
p4261
g12
sg5
F2.536202399626656
ssS'TMS_cmp_c'
p4262
(dp4263
S'maximum_status'
p4264
g4
sg5
NssS'TMS_trp__L_c'
p4265
(dp4266
S'maximum_status'
p4267
g4
sg5
NssS'TMS_acon__C_c'
p4268
(dp4269
S'maximum_status'
p4270
g4
sg5
NssS'TMS_melib_c'
p4271
(dp4272
S'maximum_status'
p4273
g12
sg5
F2.5362023996340572
ssS'TMS_adprib_c'
p4274
(dp4275
S'maximum_status'
p4276
g12
sg5
F2.5362023996340572
ssS'TMS_ocdcea_p'
p4277
(dp4278
S'maximum_status'
p4279
g4
sg5
NssS'TMS_rnam_p'
p4280
(dp4281
S'maximum_status'
p4282
g12
sg5
F2.536202399634049
ssS'TMS_acon__C_p'
p4283
(dp4284
S'maximum_status'
p4285
g12
sg5
F2.5362023996340572
ssS'TMS_trp__L_p'
p4286
(dp4287
S'maximum_status'
p4288
g4
sg5
NssS'TMS_pa160_c'
p4289
(dp4290
S'maximum_status'
p4291
g4
sg5
NssS'TMS_5aop_c'
p4292
(dp4293
S'maximum_status'
p4294
g4
sg5
NssS'TMS_ala__L_c'
p4295
(dp4296
S'maximum_status'
p4297
g22
sg5
NssS'TMS_pa160_p'
p4298
(dp4299
S'maximum_status'
p4300
g4
sg5
NssS'TMS_ala__L_p'
p4301
(dp4302
S'maximum_status'
p4303
g4
sg5
NssS'TMS_f1p_c'
p4304
(dp4305
S'maximum_status'
p4306
g12
sg5
F2.5362023996340572
ssS'TMS_arbtn_c'
p4307
(dp4308
S'maximum_status'
p4309
g12
sg5
F2.5362023996340675
ssS'TMS_gal1p_c'
p4310
(dp4311
S'maximum_status'
p4312
g12
sg5
F2.5362023996266583
ssS'TMS_arbtn_p'
p4313
(dp4314
S'maximum_status'
p4315
g12
sg5
F2.5362023996340675
ssS'TMS_rhcys_c'
p4316
(dp4317
S'maximum_status'
p4318
g4
sg5
NssS'TMS_gal1p_p'
p4319
(dp4320
S'maximum_status'
p4321
g12
sg5
F2.5362023996340572
ssS'TMS_dcamp_c'
p4322
(dp4323
S'maximum_status'
p4324
g12
sg5
F2.5362023996340572
ssS'TMS_gdpfuc_c'
p4325
(dp4326
S'maximum_status'
p4327
g12
sg5
F2.5362023996266645
ssS'TMS_6pgl_c'
p4328
(dp4329
S'maximum_status'
p4330
g12
sg5
F2.5362023996266645
ssS'TMS_lipa__cold_c'
p4331
(dp4332
S'maximum_status'
p4333
g12
sg5
F2.5362023996340572
ssS'TMS_sucgsa_c'
p4334
(dp4335
S'maximum_status'
p4336
g12
sg5
F2.5362023996266654
ssS'TMS_phpyr_c'
p4337
(dp4338
S'maximum_status'
p4339
g12
sg5
F2.5362023996266707
ssS'TMS_lipa__cold_p'
p4340
(dp4341
S'maximum_status'
p4342
g12
sg5
F2.5362023996340572
ssS'TMS_apg141_c'
p4343
(dp4344
S'maximum_status'
p4345
g12
sg5
F2.5362023996340572
ssS'TMS_murein5p5p_p'
p4346
(dp4347
S'maximum_status'
p4348
g4
sg5
NssS'TMS_trnaasn_c'
p4349
(dp4350
S'maximum_status'
p4351
g12
sg5
F2.5362023996266645
ssS'TMS_thmpp_c'
p4352
(dp4353
S'maximum_status'
p4354
g12
sg5
F2.5362023996340572
ssS'TMS_4hoxpac_p'
p4355
(dp4356
S'maximum_status'
p4357
g12
sg5
F2.5362023996266525
ssS'TMS_xmp_p'
p4358
(dp4359
S'maximum_status'
p4360
g12
sg5
F2.5362023996266663
ssS'TMS_dcdp_c'
p4361
(dp4362
S'maximum_status'
p4363
g12
sg5
F2.536202397840155
ssS'TMS_4hoxpac_c'
p4364
(dp4365
S'maximum_status'
p4366
g12
sg5
F2.5362023996266525
ssS'TMS_xmp_c'
p4367
(dp4368
S'maximum_status'
p4369
g4
sg5
NssS'TMS_fe3hox__un_p'
p4370
(dp4371
S'maximum_status'
p4372
g12
sg5
F2.5362023996340572
ssS'TMS_udcdp8Oag_p'
p4373
(dp4374
S'maximum_status'
p4375
g12
sg5
F2.5362023996340572
ssS'TMS_dxyl_p'
p4376
(dp4377
S'maximum_status'
p4378
g12
sg5
F2.5362023996340572
ssS'TMS_fe3hox__un_c'
p4379
(dp4380
S'maximum_status'
p4381
g12
sg5
F2.5362023996340572
ssS'TMS_dxyl_c'
p4382
(dp4383
S'maximum_status'
p4384
g12
sg5
F2.5362023996340572
ssS'TMS_3oocoa_c'
p4385
(dp4386
S'maximum_status'
p4387
g12
sg5
F2.5362023996266636
ss.